
bin\Debug\MC_Project_Brug.elf:     file format elf32-avr

Sections:
Idx Name          Size      VMA       LMA       File off  Algn
  0 .data         00000000  00800200  00002106  0000219a  2**0
                  CONTENTS, ALLOC, LOAD, DATA
  1 .text         00002106  00000000  00000000  00000094  2**1
                  CONTENTS, ALLOC, LOAD, READONLY, CODE
  2 .fuse         00000003  00820000  00820000  0000219a  2**0
                  CONTENTS, ALLOC, LOAD, DATA
  3 .comment      00000012  00000000  00000000  0000219d  2**0
                  CONTENTS, READONLY
  4 .note.gnu.avr.deviceinfo 00000040  00000000  00000000  000021b0  2**2
                  CONTENTS, READONLY, OCTETS
  5 .debug_aranges 000000d8  00000000  00000000  000021f0  2**3
                  CONTENTS, READONLY, DEBUGGING, OCTETS
  6 .debug_info   00001551  00000000  00000000  000022c8  2**0
                  CONTENTS, READONLY, DEBUGGING, OCTETS
  7 .debug_abbrev 00000eb5  00000000  00000000  00003819  2**0
                  CONTENTS, READONLY, DEBUGGING, OCTETS
  8 .debug_line   0000158f  00000000  00000000  000046ce  2**0
                  CONTENTS, READONLY, DEBUGGING, OCTETS
  9 .debug_frame  000004e8  00000000  00000000  00005c60  2**2
                  CONTENTS, READONLY, DEBUGGING, OCTETS
 10 .debug_str    000007cf  00000000  00000000  00006148  2**0
                  CONTENTS, READONLY, DEBUGGING, OCTETS
 11 .debug_line_str 000001a0  00000000  00000000  00006917  2**0
                  CONTENTS, READONLY, DEBUGGING, OCTETS

Disassembly of section .text:

00000000 <__vectors>:
       0:	0c 94 72 00 	jmp	0xe4	; 0xe4 <__ctors_end>
       4:	0c 94 7e 00 	jmp	0xfc	; 0xfc <__bad_interrupt>
       8:	0c 94 7e 00 	jmp	0xfc	; 0xfc <__bad_interrupt>
       c:	0c 94 7e 00 	jmp	0xfc	; 0xfc <__bad_interrupt>
      10:	0c 94 7e 00 	jmp	0xfc	; 0xfc <__bad_interrupt>
      14:	0c 94 7e 00 	jmp	0xfc	; 0xfc <__bad_interrupt>
      18:	0c 94 7e 00 	jmp	0xfc	; 0xfc <__bad_interrupt>
      1c:	0c 94 7e 00 	jmp	0xfc	; 0xfc <__bad_interrupt>
      20:	0c 94 7e 00 	jmp	0xfc	; 0xfc <__bad_interrupt>
      24:	0c 94 7e 00 	jmp	0xfc	; 0xfc <__bad_interrupt>
      28:	0c 94 7e 00 	jmp	0xfc	; 0xfc <__bad_interrupt>
      2c:	0c 94 7e 00 	jmp	0xfc	; 0xfc <__bad_interrupt>
      30:	0c 94 7e 00 	jmp	0xfc	; 0xfc <__bad_interrupt>
      34:	0c 94 7e 00 	jmp	0xfc	; 0xfc <__bad_interrupt>
      38:	0c 94 7e 00 	jmp	0xfc	; 0xfc <__bad_interrupt>
      3c:	0c 94 7e 00 	jmp	0xfc	; 0xfc <__bad_interrupt>
      40:	0c 94 7e 00 	jmp	0xfc	; 0xfc <__bad_interrupt>
      44:	0c 94 26 0d 	jmp	0x1a4c	; 0x1a4c <__vector_17>
      48:	0c 94 4e 0d 	jmp	0x1a9c	; 0x1a9c <__vector_18>
      4c:	0c 94 7e 00 	jmp	0xfc	; 0xfc <__bad_interrupt>
      50:	0c 94 ec 0c 	jmp	0x19d8	; 0x19d8 <__vector_20>
      54:	0c 94 ef 00 	jmp	0x1de	; 0x1de <__vector_21>
      58:	0c 94 1d 01 	jmp	0x23a	; 0x23a <__vector_22>
      5c:	0c 94 80 00 	jmp	0x100	; 0x100 <__vector_23>
      60:	0c 94 7e 00 	jmp	0xfc	; 0xfc <__bad_interrupt>
      64:	0c 94 7e 00 	jmp	0xfc	; 0xfc <__bad_interrupt>
      68:	0c 94 7e 00 	jmp	0xfc	; 0xfc <__bad_interrupt>
      6c:	0c 94 7e 00 	jmp	0xfc	; 0xfc <__bad_interrupt>
      70:	0c 94 7e 00 	jmp	0xfc	; 0xfc <__bad_interrupt>
      74:	0c 94 7e 00 	jmp	0xfc	; 0xfc <__bad_interrupt>
      78:	0c 94 7e 00 	jmp	0xfc	; 0xfc <__bad_interrupt>
      7c:	0c 94 7e 00 	jmp	0xfc	; 0xfc <__bad_interrupt>
      80:	0c 94 7e 00 	jmp	0xfc	; 0xfc <__bad_interrupt>
      84:	0c 94 7e 00 	jmp	0xfc	; 0xfc <__bad_interrupt>
      88:	0c 94 7e 00 	jmp	0xfc	; 0xfc <__bad_interrupt>
      8c:	0c 94 7e 00 	jmp	0xfc	; 0xfc <__bad_interrupt>
      90:	0c 94 7e 00 	jmp	0xfc	; 0xfc <__bad_interrupt>
      94:	0c 94 7e 00 	jmp	0xfc	; 0xfc <__bad_interrupt>
      98:	0c 94 7e 00 	jmp	0xfc	; 0xfc <__bad_interrupt>
      9c:	0c 94 7e 00 	jmp	0xfc	; 0xfc <__bad_interrupt>
      a0:	0c 94 7e 00 	jmp	0xfc	; 0xfc <__bad_interrupt>
      a4:	0c 94 7e 00 	jmp	0xfc	; 0xfc <__bad_interrupt>
      a8:	0c 94 7e 00 	jmp	0xfc	; 0xfc <__bad_interrupt>
      ac:	0c 94 7e 00 	jmp	0xfc	; 0xfc <__bad_interrupt>
      b0:	0c 94 7e 00 	jmp	0xfc	; 0xfc <__bad_interrupt>
      b4:	0c 94 7e 00 	jmp	0xfc	; 0xfc <__bad_interrupt>
      b8:	0c 94 7e 00 	jmp	0xfc	; 0xfc <__bad_interrupt>
      bc:	0c 94 7e 00 	jmp	0xfc	; 0xfc <__bad_interrupt>
      c0:	0c 94 7e 00 	jmp	0xfc	; 0xfc <__bad_interrupt>
      c4:	0c 94 7e 00 	jmp	0xfc	; 0xfc <__bad_interrupt>
      c8:	0c 94 7e 00 	jmp	0xfc	; 0xfc <__bad_interrupt>
      cc:	0c 94 7e 00 	jmp	0xfc	; 0xfc <__bad_interrupt>
      d0:	0c 94 7e 00 	jmp	0xfc	; 0xfc <__bad_interrupt>
      d4:	0c 94 7e 00 	jmp	0xfc	; 0xfc <__bad_interrupt>
      d8:	0c 94 7e 00 	jmp	0xfc	; 0xfc <__bad_interrupt>
      dc:	0c 94 7e 00 	jmp	0xfc	; 0xfc <__bad_interrupt>
      e0:	0c 94 7e 00 	jmp	0xfc	; 0xfc <__bad_interrupt>

000000e4 <__ctors_end>:
      e4:	11 24       	eor	r1, r1
      e6:	1f be       	out	0x3f, r1	; 63
      e8:	cf ef       	ldi	r28, 0xFF	; 255
      ea:	d1 e2       	ldi	r29, 0x21	; 33
      ec:	de bf       	out	0x3e, r29	; 62
      ee:	cd bf       	out	0x3d, r28	; 61
      f0:	00 e0       	ldi	r16, 0x00	; 0
      f2:	0c bf       	out	0x3c, r16	; 60
      f4:	0e 94 1a 06 	call	0xc34	; 0xc34 <main>
      f8:	0c 94 81 10 	jmp	0x2102	; 0x2102 <_exit>

000000fc <__bad_interrupt>:
      fc:	0c 94 00 00 	jmp	0	; 0x0 <__vectors>

00000100 <__vector_23>:
#include <avr/io.h>
#include <avr/interrupt.h>
#include "h_bridge.h"

ISR(TIMER0_OVF_vect)
{
     100:	1f 92       	push	r1
     102:	0f 92       	push	r0
     104:	0f b6       	in	r0, 0x3f	; 63
     106:	0f 92       	push	r0
     108:	11 24       	eor	r1, r1
     10a:	0b b6       	in	r0, 0x3b	; 59
     10c:	0f 92       	push	r0
     10e:	2f 93       	push	r18
     110:	8f 93       	push	r24
     112:	9f 93       	push	r25
     114:	ef 93       	push	r30
     116:	ff 93       	push	r31
     118:	cf 93       	push	r28
     11a:	df 93       	push	r29
     11c:	cd b7       	in	r28, 0x3d	; 61
     11e:	de b7       	in	r29, 0x3e	; 62

00000120 <.Loc.1>:
	if (OCR0A == 0 && OCR0B == 0)
     120:	87 e4       	ldi	r24, 0x47	; 71
     122:	90 e0       	ldi	r25, 0x00	; 0
     124:	fc 01       	movw	r30, r24
     126:	80 81       	ld	r24, Z

00000128 <.Loc.2>:
     128:	88 23       	and	r24, r24
     12a:	c9 f4       	brne	.+50     	; 0x15e <.L2>

0000012c <.Loc.3>:
     12c:	88 e4       	ldi	r24, 0x48	; 72
     12e:	90 e0       	ldi	r25, 0x00	; 0
     130:	fc 01       	movw	r30, r24
     132:	80 81       	ld	r24, Z

00000134 <.Loc.4>:
     134:	88 23       	and	r24, r24
     136:	99 f4       	brne	.+38     	; 0x15e <.L2>

00000138 <.Loc.5>:
	{
		PORT_RPWM &= ~(1<<PIN_RPWM);
     138:	82 e0       	ldi	r24, 0x02	; 2
     13a:	91 e0       	ldi	r25, 0x01	; 1
     13c:	fc 01       	movw	r30, r24
     13e:	20 81       	ld	r18, Z

00000140 <.Loc.6>:
     140:	82 e0       	ldi	r24, 0x02	; 2
     142:	91 e0       	ldi	r25, 0x01	; 1

00000144 <.Loc.7>:
     144:	2f 7b       	andi	r18, 0xBF	; 191
     146:	fc 01       	movw	r30, r24
     148:	20 83       	st	Z, r18

0000014a <.Loc.8>:
		PORT_LPWM &= ~(1<<PIN_LPWM);
     14a:	81 e3       	ldi	r24, 0x31	; 49
     14c:	90 e0       	ldi	r25, 0x00	; 0
     14e:	fc 01       	movw	r30, r24
     150:	20 81       	ld	r18, Z

00000152 <.Loc.9>:
     152:	81 e3       	ldi	r24, 0x31	; 49
     154:	90 e0       	ldi	r25, 0x00	; 0

00000156 <.Loc.10>:
     156:	2f 7d       	andi	r18, 0xDF	; 223
     158:	fc 01       	movw	r30, r24
     15a:	20 83       	st	Z, r18

0000015c <.Loc.11>:
	else if (OCR0B != 0)
	{
		PORT_RPWM &= ~(1<<PIN_RPWM);
		PORT_LPWM |= (1<<PIN_LPWM);
	}
}
     15c:	31 c0       	rjmp	.+98     	; 0x1c0 <.L5>

0000015e <.L2>:
	else if (OCR0A != 0)
     15e:	87 e4       	ldi	r24, 0x47	; 71
     160:	90 e0       	ldi	r25, 0x00	; 0
     162:	fc 01       	movw	r30, r24
     164:	80 81       	ld	r24, Z

00000166 <.Loc.13>:
     166:	88 23       	and	r24, r24
     168:	99 f0       	breq	.+38     	; 0x190 <.L4>

0000016a <.Loc.14>:
		PORT_LPWM &= ~(1<<PIN_LPWM);
     16a:	81 e3       	ldi	r24, 0x31	; 49
     16c:	90 e0       	ldi	r25, 0x00	; 0
     16e:	fc 01       	movw	r30, r24
     170:	20 81       	ld	r18, Z

00000172 <.Loc.15>:
     172:	81 e3       	ldi	r24, 0x31	; 49
     174:	90 e0       	ldi	r25, 0x00	; 0

00000176 <.Loc.16>:
     176:	2f 7d       	andi	r18, 0xDF	; 223
     178:	fc 01       	movw	r30, r24
     17a:	20 83       	st	Z, r18

0000017c <.Loc.17>:
		PORT_RPWM |= (1<<PIN_RPWM);
     17c:	82 e0       	ldi	r24, 0x02	; 2
     17e:	91 e0       	ldi	r25, 0x01	; 1
     180:	fc 01       	movw	r30, r24
     182:	20 81       	ld	r18, Z
     184:	82 e0       	ldi	r24, 0x02	; 2
     186:	91 e0       	ldi	r25, 0x01	; 1

00000188 <.Loc.18>:
     188:	20 64       	ori	r18, 0x40	; 64
     18a:	fc 01       	movw	r30, r24
     18c:	20 83       	st	Z, r18

0000018e <.Loc.19>:
}
     18e:	18 c0       	rjmp	.+48     	; 0x1c0 <.L5>

00000190 <.L4>:
	else if (OCR0B != 0)
     190:	88 e4       	ldi	r24, 0x48	; 72
     192:	90 e0       	ldi	r25, 0x00	; 0
     194:	fc 01       	movw	r30, r24
     196:	80 81       	ld	r24, Z

00000198 <.Loc.21>:
     198:	88 23       	and	r24, r24
     19a:	91 f0       	breq	.+36     	; 0x1c0 <.L5>

0000019c <.Loc.22>:
		PORT_RPWM &= ~(1<<PIN_RPWM);
     19c:	82 e0       	ldi	r24, 0x02	; 2
     19e:	91 e0       	ldi	r25, 0x01	; 1
     1a0:	fc 01       	movw	r30, r24
     1a2:	20 81       	ld	r18, Z

000001a4 <.Loc.23>:
     1a4:	82 e0       	ldi	r24, 0x02	; 2
     1a6:	91 e0       	ldi	r25, 0x01	; 1

000001a8 <.Loc.24>:
     1a8:	2f 7b       	andi	r18, 0xBF	; 191
     1aa:	fc 01       	movw	r30, r24
     1ac:	20 83       	st	Z, r18

000001ae <.Loc.25>:
		PORT_LPWM |= (1<<PIN_LPWM);
     1ae:	81 e3       	ldi	r24, 0x31	; 49
     1b0:	90 e0       	ldi	r25, 0x00	; 0
     1b2:	fc 01       	movw	r30, r24
     1b4:	20 81       	ld	r18, Z
     1b6:	81 e3       	ldi	r24, 0x31	; 49
     1b8:	90 e0       	ldi	r25, 0x00	; 0

000001ba <.Loc.26>:
     1ba:	20 62       	ori	r18, 0x20	; 32
     1bc:	fc 01       	movw	r30, r24
     1be:	20 83       	st	Z, r18

000001c0 <.L5>:
}
     1c0:	00 00       	nop
     1c2:	df 91       	pop	r29
     1c4:	cf 91       	pop	r28
     1c6:	ff 91       	pop	r31
     1c8:	ef 91       	pop	r30
     1ca:	9f 91       	pop	r25
     1cc:	8f 91       	pop	r24
     1ce:	2f 91       	pop	r18
     1d0:	0f 90       	pop	r0
     1d2:	0b be       	out	0x3b, r0	; 59
     1d4:	0f 90       	pop	r0
     1d6:	0f be       	out	0x3f, r0	; 63
     1d8:	0f 90       	pop	r0
     1da:	1f 90       	pop	r1
     1dc:	18 95       	reti

000001de <__vector_21>:

ISR(TIMER0_COMPA_vect)
{
     1de:	1f 92       	push	r1
     1e0:	0f 92       	push	r0
     1e2:	0f b6       	in	r0, 0x3f	; 63
     1e4:	0f 92       	push	r0
     1e6:	11 24       	eor	r1, r1
     1e8:	0b b6       	in	r0, 0x3b	; 59
     1ea:	0f 92       	push	r0
     1ec:	2f 93       	push	r18
     1ee:	8f 93       	push	r24
     1f0:	9f 93       	push	r25
     1f2:	ef 93       	push	r30
     1f4:	ff 93       	push	r31
     1f6:	cf 93       	push	r28
     1f8:	df 93       	push	r29
     1fa:	cd b7       	in	r28, 0x3d	; 61
     1fc:	de b7       	in	r29, 0x3e	; 62

000001fe <.Loc.29>:
	if (OCR0A != 255)
     1fe:	87 e4       	ldi	r24, 0x47	; 71
     200:	90 e0       	ldi	r25, 0x00	; 0
     202:	fc 01       	movw	r30, r24
     204:	80 81       	ld	r24, Z

00000206 <.Loc.30>:
     206:	8f 3f       	cpi	r24, 0xFF	; 255
     208:	49 f0       	breq	.+18     	; 0x21c <.L8>

0000020a <.Loc.31>:
	{
		PORT_RPWM &= ~(1<<PIN_RPWM);
     20a:	82 e0       	ldi	r24, 0x02	; 2
     20c:	91 e0       	ldi	r25, 0x01	; 1
     20e:	fc 01       	movw	r30, r24
     210:	20 81       	ld	r18, Z

00000212 <.Loc.32>:
     212:	82 e0       	ldi	r24, 0x02	; 2
     214:	91 e0       	ldi	r25, 0x01	; 1

00000216 <.Loc.33>:
     216:	2f 7b       	andi	r18, 0xBF	; 191
     218:	fc 01       	movw	r30, r24
     21a:	20 83       	st	Z, r18

0000021c <.L8>:
	}
}
     21c:	00 00       	nop
     21e:	df 91       	pop	r29
     220:	cf 91       	pop	r28
     222:	ff 91       	pop	r31
     224:	ef 91       	pop	r30
     226:	9f 91       	pop	r25
     228:	8f 91       	pop	r24
     22a:	2f 91       	pop	r18
     22c:	0f 90       	pop	r0
     22e:	0b be       	out	0x3b, r0	; 59
     230:	0f 90       	pop	r0
     232:	0f be       	out	0x3f, r0	; 63
     234:	0f 90       	pop	r0
     236:	1f 90       	pop	r1
     238:	18 95       	reti

0000023a <__vector_22>:

ISR(TIMER0_COMPB_vect)
{
     23a:	1f 92       	push	r1
     23c:	0f 92       	push	r0
     23e:	0f b6       	in	r0, 0x3f	; 63
     240:	0f 92       	push	r0
     242:	11 24       	eor	r1, r1
     244:	0b b6       	in	r0, 0x3b	; 59
     246:	0f 92       	push	r0
     248:	2f 93       	push	r18
     24a:	8f 93       	push	r24
     24c:	9f 93       	push	r25
     24e:	ef 93       	push	r30
     250:	ff 93       	push	r31
     252:	cf 93       	push	r28
     254:	df 93       	push	r29
     256:	cd b7       	in	r28, 0x3d	; 61
     258:	de b7       	in	r29, 0x3e	; 62

0000025a <.Loc.36>:
	if (OCR0B != 255)
     25a:	88 e4       	ldi	r24, 0x48	; 72
     25c:	90 e0       	ldi	r25, 0x00	; 0
     25e:	fc 01       	movw	r30, r24
     260:	80 81       	ld	r24, Z

00000262 <.Loc.37>:
     262:	8f 3f       	cpi	r24, 0xFF	; 255
     264:	49 f0       	breq	.+18     	; 0x278 <.L11>

00000266 <.Loc.38>:
	{
		PORT_LPWM &= ~(1<<PIN_LPWM);
     266:	81 e3       	ldi	r24, 0x31	; 49
     268:	90 e0       	ldi	r25, 0x00	; 0
     26a:	fc 01       	movw	r30, r24
     26c:	20 81       	ld	r18, Z

0000026e <.Loc.39>:
     26e:	81 e3       	ldi	r24, 0x31	; 49
     270:	90 e0       	ldi	r25, 0x00	; 0

00000272 <.Loc.40>:
     272:	2f 7d       	andi	r18, 0xDF	; 223
     274:	fc 01       	movw	r30, r24
     276:	20 83       	st	Z, r18

00000278 <.L11>:
	}
}
     278:	00 00       	nop
     27a:	df 91       	pop	r29
     27c:	cf 91       	pop	r28
     27e:	ff 91       	pop	r31
     280:	ef 91       	pop	r30
     282:	9f 91       	pop	r25
     284:	8f 91       	pop	r24
     286:	2f 91       	pop	r18
     288:	0f 90       	pop	r0
     28a:	0b be       	out	0x3b, r0	; 59
     28c:	0f 90       	pop	r0
     28e:	0f be       	out	0x3f, r0	; 63
     290:	0f 90       	pop	r0
     292:	1f 90       	pop	r1
     294:	18 95       	reti

00000296 <init_h_bridge>:

void init_h_bridge(void)
{
     296:	cf 93       	push	r28
     298:	df 93       	push	r29
     29a:	cd b7       	in	r28, 0x3d	; 61
     29c:	de b7       	in	r29, 0x3e	; 62

0000029e <.Loc.43>:
	// Config pins as output
	DDR_RPWM |= (1<<PIN_RPWM);
     29e:	81 e0       	ldi	r24, 0x01	; 1
     2a0:	91 e0       	ldi	r25, 0x01	; 1
     2a2:	fc 01       	movw	r30, r24
     2a4:	20 81       	ld	r18, Z
     2a6:	81 e0       	ldi	r24, 0x01	; 1
     2a8:	91 e0       	ldi	r25, 0x01	; 1

000002aa <.Loc.44>:
     2aa:	20 64       	ori	r18, 0x40	; 64
     2ac:	fc 01       	movw	r30, r24
     2ae:	20 83       	st	Z, r18

000002b0 <.Loc.45>:
	DDR_LPWM |= (1<<PIN_LPWM);
     2b0:	80 e3       	ldi	r24, 0x30	; 48
     2b2:	90 e0       	ldi	r25, 0x00	; 0
     2b4:	fc 01       	movw	r30, r24
     2b6:	20 81       	ld	r18, Z
     2b8:	80 e3       	ldi	r24, 0x30	; 48
     2ba:	90 e0       	ldi	r25, 0x00	; 0

000002bc <.Loc.46>:
     2bc:	20 62       	ori	r18, 0x20	; 32
     2be:	fc 01       	movw	r30, r24
     2c0:	20 83       	st	Z, r18

000002c2 <.Loc.47>:

	// Output low
	PORT_RPWM &= ~(1<<PIN_RPWM);
     2c2:	82 e0       	ldi	r24, 0x02	; 2
     2c4:	91 e0       	ldi	r25, 0x01	; 1
     2c6:	fc 01       	movw	r30, r24
     2c8:	20 81       	ld	r18, Z

000002ca <.Loc.48>:
     2ca:	82 e0       	ldi	r24, 0x02	; 2
     2cc:	91 e0       	ldi	r25, 0x01	; 1

000002ce <.Loc.49>:
     2ce:	2f 7b       	andi	r18, 0xBF	; 191
     2d0:	fc 01       	movw	r30, r24
     2d2:	20 83       	st	Z, r18

000002d4 <.Loc.50>:
	PORT_LPWM &= ~(1<<PIN_LPWM);
     2d4:	81 e3       	ldi	r24, 0x31	; 49
     2d6:	90 e0       	ldi	r25, 0x00	; 0
     2d8:	fc 01       	movw	r30, r24
     2da:	20 81       	ld	r18, Z

000002dc <.Loc.51>:
     2dc:	81 e3       	ldi	r24, 0x31	; 49
     2de:	90 e0       	ldi	r25, 0x00	; 0

000002e0 <.Loc.52>:
     2e0:	2f 7d       	andi	r18, 0xDF	; 223
     2e2:	fc 01       	movw	r30, r24
     2e4:	20 83       	st	Z, r18

000002e6 <.Loc.53>:

	// Use mode 0, clkdiv = 64
	TCCR0A = 0;
     2e6:	84 e4       	ldi	r24, 0x44	; 68
     2e8:	90 e0       	ldi	r25, 0x00	; 0

000002ea <.Loc.54>:
     2ea:	fc 01       	movw	r30, r24
     2ec:	10 82       	st	Z, r1

000002ee <.Loc.55>:
	TCCR0B = (0<<CS02) | (1<<CS01) | (1<<CS00);
     2ee:	85 e4       	ldi	r24, 0x45	; 69
     2f0:	90 e0       	ldi	r25, 0x00	; 0

000002f2 <.Loc.56>:
     2f2:	23 e0       	ldi	r18, 0x03	; 3
     2f4:	fc 01       	movw	r30, r24
     2f6:	20 83       	st	Z, r18

000002f8 <.Loc.57>:

	// Disable PWM output
	OCR0A = 0;
     2f8:	87 e4       	ldi	r24, 0x47	; 71
     2fa:	90 e0       	ldi	r25, 0x00	; 0

000002fc <.Loc.58>:
     2fc:	fc 01       	movw	r30, r24
     2fe:	10 82       	st	Z, r1

00000300 <.Loc.59>:
	OCR0B = 0;
     300:	88 e4       	ldi	r24, 0x48	; 72
     302:	90 e0       	ldi	r25, 0x00	; 0

00000304 <.Loc.60>:
     304:	fc 01       	movw	r30, r24
     306:	10 82       	st	Z, r1

00000308 <.Loc.61>:

	// Interrupts on OCA, OCB and OVF
	TIMSK0 = (1<<OCIE0B) | (1<<OCIE0A) | (1<<TOIE0);
     308:	8e e6       	ldi	r24, 0x6E	; 110
     30a:	90 e0       	ldi	r25, 0x00	; 0

0000030c <.Loc.62>:
     30c:	27 e0       	ldi	r18, 0x07	; 7
     30e:	fc 01       	movw	r30, r24
     310:	20 83       	st	Z, r18

00000312 <.Loc.63>:

	sei();
     312:	78 94       	sei

00000314 <.Loc.64>:
}
     314:	00 00       	nop
     316:	df 91       	pop	r29
     318:	cf 91       	pop	r28
     31a:	08 95       	ret

0000031c <h_bridge_set_percentage>:

void h_bridge_set_percentage(signed char percentage)
{
     31c:	cf 93       	push	r28
     31e:	df 93       	push	r29
     320:	0f 92       	push	r0
     322:	cd b7       	in	r28, 0x3d	; 61
     324:	de b7       	in	r29, 0x3e	; 62
     326:	89 83       	std	Y+1, r24	; 0x01

00000328 <.Loc.66>:
	if (percentage >= -100 && percentage <= 100)
     328:	89 81       	ldd	r24, Y+1	; 0x01
     32a:	8c 39       	cpi	r24, 0x9C	; 156
     32c:	e4 f1       	brlt	.+120    	; 0x3a6 <.L16>

0000032e <.Loc.67>:
     32e:	89 81       	ldd	r24, Y+1	; 0x01
     330:	84 36       	cpi	r24, 0x64	; 100
     332:	09 f0       	breq	.+2      	; 0x336 <.Loc.68>

00000334 <L0^A>:
     334:	c4 f5       	brge	.+112    	; 0x3a6 <.L16>

00000336 <.Loc.68>:
	{
		if (percentage >= 0)
     336:	89 81       	ldd	r24, Y+1	; 0x01
     338:	88 23       	and	r24, r24
     33a:	dc f0       	brlt	.+54     	; 0x372 <.L15>

0000033c <.Loc.69>:
		{
			// Disable LPWM, calculate RPWM
			OCR0B = 0;
     33c:	88 e4       	ldi	r24, 0x48	; 72
     33e:	90 e0       	ldi	r25, 0x00	; 0

00000340 <.Loc.70>:
     340:	fc 01       	movw	r30, r24
     342:	10 82       	st	Z, r1

00000344 <.Loc.71>:
			OCR0A = (255*percentage)/100;
     344:	89 81       	ldd	r24, Y+1	; 0x01
     346:	08 2e       	mov	r0, r24
     348:	00 0c       	add	r0, r0
     34a:	99 0b       	sbc	r25, r25
     34c:	2f ef       	ldi	r18, 0xFF	; 255
     34e:	28 9f       	mul	r18, r24
     350:	a0 01       	movw	r20, r0
     352:	29 9f       	mul	r18, r25
     354:	50 0d       	add	r21, r0
     356:	11 24       	eor	r1, r1

00000358 <.Loc.72>:
     358:	24 e6       	ldi	r18, 0x64	; 100
     35a:	30 e0       	ldi	r19, 0x00	; 0
     35c:	ca 01       	movw	r24, r20
     35e:	b9 01       	movw	r22, r18
     360:	0e 94 94 0e 	call	0x1d28	; 0x1d28 <__divmodhi4>
     364:	cb 01       	movw	r24, r22
     366:	9c 01       	movw	r18, r24

00000368 <.Loc.73>:
     368:	87 e4       	ldi	r24, 0x47	; 71
     36a:	90 e0       	ldi	r25, 0x00	; 0

0000036c <.Loc.74>:
     36c:	fc 01       	movw	r30, r24
     36e:	20 83       	st	Z, r18

00000370 <.Loc.75>:
			// Disable RPWM, calculate LPWM
			OCR0A = 0;
			OCR0B = (255*percentage)/-100;
		}
	}
}
     370:	1a c0       	rjmp	.+52     	; 0x3a6 <.L16>

00000372 <.L15>:
			OCR0A = 0;
     372:	87 e4       	ldi	r24, 0x47	; 71
     374:	90 e0       	ldi	r25, 0x00	; 0

00000376 <.Loc.77>:
     376:	fc 01       	movw	r30, r24
     378:	10 82       	st	Z, r1

0000037a <.Loc.78>:
			OCR0B = (255*percentage)/-100;
     37a:	89 81       	ldd	r24, Y+1	; 0x01
     37c:	08 2e       	mov	r0, r24
     37e:	00 0c       	add	r0, r0
     380:	99 0b       	sbc	r25, r25
     382:	2f ef       	ldi	r18, 0xFF	; 255
     384:	28 9f       	mul	r18, r24
     386:	a0 01       	movw	r20, r0
     388:	29 9f       	mul	r18, r25
     38a:	50 0d       	add	r21, r0
     38c:	11 24       	eor	r1, r1

0000038e <.Loc.79>:
     38e:	2c e9       	ldi	r18, 0x9C	; 156
     390:	3f ef       	ldi	r19, 0xFF	; 255
     392:	ca 01       	movw	r24, r20
     394:	b9 01       	movw	r22, r18
     396:	0e 94 94 0e 	call	0x1d28	; 0x1d28 <__divmodhi4>
     39a:	cb 01       	movw	r24, r22
     39c:	9c 01       	movw	r18, r24

0000039e <.Loc.80>:
     39e:	88 e4       	ldi	r24, 0x48	; 72
     3a0:	90 e0       	ldi	r25, 0x00	; 0

000003a2 <.Loc.81>:
     3a2:	fc 01       	movw	r30, r24
     3a4:	20 83       	st	Z, r18

000003a6 <.L16>:
}
     3a6:	00 00       	nop
     3a8:	0f 90       	pop	r0
     3aa:	df 91       	pop	r29
     3ac:	cf 91       	pop	r28
     3ae:	08 95       	ret

000003b0 <init>:
#define LED_GroenL      PL7     // D pin 42
#define LED_Rood_2L     PG0     // D pin 41

//----Functies----//
void init(void)
{
     3b0:	cf 93       	push	r28
     3b2:	df 93       	push	r29
     3b4:	cd b7       	in	r28, 0x3d	; 61
     3b6:	de b7       	in	r29, 0x3e	; 62

000003b8 <.Loc.1>:
	init_h_bridge();
     3b8:	0e 94 4b 01 	call	0x296	; 0x296 <init_h_bridge>

000003bc <.Loc.2>:
	init_servo();
     3bc:	0e 94 76 0d 	call	0x1aec	; 0x1aec <init_servo>

000003c0 <.Loc.3>:
}
     3c0:	00 00       	nop
     3c2:	df 91       	pop	r29
     3c4:	cf 91       	pop	r28
     3c6:	08 95       	ret

000003c8 <knipperlicht_rood>:

void knipperlicht_rood(int knip_aan)
{
     3c8:	cf 93       	push	r28
     3ca:	df 93       	push	r29
     3cc:	cd b7       	in	r28, 0x3d	; 61
     3ce:	de b7       	in	r29, 0x3e	; 62
     3d0:	c6 54       	subi	r28, 0x46	; 70
     3d2:	d1 09       	sbc	r29, r1
     3d4:	0f b6       	in	r0, 0x3f	; 63
     3d6:	f8 94       	cli
     3d8:	de bf       	out	0x3e, r29	; 62
     3da:	0f be       	out	0x3f, r0	; 63
     3dc:	cd bf       	out	0x3d, r28	; 61
     3de:	9e 8f       	std	Y+30, r25	; 0x1e
     3e0:	8d 8f       	std	Y+29, r24	; 0x1d

000003e2 <.Loc.5>:
    if (knip_aan == 1)
     3e2:	8d 8d       	ldd	r24, Y+29	; 0x1d
     3e4:	9e 8d       	ldd	r25, Y+30	; 0x1e
     3e6:	81 30       	cpi	r24, 0x01	; 1
     3e8:	91 05       	cpc	r25, r1
     3ea:	09 f0       	breq	.+2      	; 0x3ee <.Loc.6>

000003ec <L0^A>:
     3ec:	4b c1       	rjmp	.+662    	; 0x684 <.L28>

000003ee <.Loc.6>:
    {
        PORTB &= ~(1<<knipper_rood1);
     3ee:	85 e2       	ldi	r24, 0x25	; 37
     3f0:	90 e0       	ldi	r25, 0x00	; 0
     3f2:	dc 01       	movw	r26, r24
     3f4:	2c 91       	ld	r18, X

000003f6 <.Loc.7>:
     3f6:	85 e2       	ldi	r24, 0x25	; 37
     3f8:	90 e0       	ldi	r25, 0x00	; 0

000003fa <.Loc.8>:
     3fa:	2f 77       	andi	r18, 0x7F	; 127
     3fc:	fc 01       	movw	r30, r24
     3fe:	20 83       	st	Z, r18

00000400 <.Loc.9>:
        PORTB |= (1<<knipper_rood2);
     400:	85 e2       	ldi	r24, 0x25	; 37
     402:	90 e0       	ldi	r25, 0x00	; 0
     404:	dc 01       	movw	r26, r24
     406:	2c 91       	ld	r18, X
     408:	85 e2       	ldi	r24, 0x25	; 37
     40a:	90 e0       	ldi	r25, 0x00	; 0

0000040c <.Loc.10>:
     40c:	20 64       	ori	r18, 0x40	; 64
     40e:	fc 01       	movw	r30, r24
     410:	20 83       	st	Z, r18
     412:	80 e0       	ldi	r24, 0x00	; 0
     414:	90 e0       	ldi	r25, 0x00	; 0
     416:	a8 e4       	ldi	r26, 0x48	; 72
     418:	b3 e4       	ldi	r27, 0x43	; 67
     41a:	8f 87       	std	Y+15, r24	; 0x0f
     41c:	98 8b       	std	Y+16, r25	; 0x10
     41e:	a9 8b       	std	Y+17, r26	; 0x11
     420:	ba 8b       	std	Y+18, r27	; 0x12

00000422 <.LBB50>:

	__builtin_avr_delay_cycles(__ticks_dc);

#else
	uint16_t __ticks;
	__tmp = ((F_CPU) / 4e3) * __ms;
     422:	20 e0       	ldi	r18, 0x00	; 0
     424:	30 e0       	ldi	r19, 0x00	; 0
     426:	4a e7       	ldi	r20, 0x7A	; 122
     428:	55 e4       	ldi	r21, 0x45	; 69
     42a:	6f 85       	ldd	r22, Y+15	; 0x0f
     42c:	78 89       	ldd	r23, Y+16	; 0x10
     42e:	89 89       	ldd	r24, Y+17	; 0x11
     430:	9a 89       	ldd	r25, Y+18	; 0x12
     432:	0e 94 14 10 	call	0x2028	; 0x2028 <__mulsf3>
     436:	6f a3       	std	Y+39, r22	; 0x27
     438:	78 a7       	std	Y+40, r23	; 0x28
     43a:	89 a7       	std	Y+41, r24	; 0x29
     43c:	9a a7       	std	Y+42, r25	; 0x2a
     43e:	8f a1       	ldd	r24, Y+39	; 0x27
     440:	98 a5       	ldd	r25, Y+40	; 0x28
     442:	a9 a5       	ldd	r26, Y+41	; 0x29
     444:	ba a5       	ldd	r27, Y+42	; 0x2a
     446:	8b 8b       	std	Y+19, r24	; 0x13
     448:	9c 8b       	std	Y+20, r25	; 0x14
     44a:	ad 8b       	std	Y+21, r26	; 0x15
     44c:	be 8b       	std	Y+22, r27	; 0x16

0000044e <.Loc.12>:
	if (__tmp < 1.0)
     44e:	20 e0       	ldi	r18, 0x00	; 0
     450:	30 e0       	ldi	r19, 0x00	; 0
     452:	40 e8       	ldi	r20, 0x80	; 128
     454:	5f e3       	ldi	r21, 0x3F	; 63
     456:	6b 89       	ldd	r22, Y+19	; 0x13
     458:	7c 89       	ldd	r23, Y+20	; 0x14
     45a:	8d 89       	ldd	r24, Y+21	; 0x15
     45c:	9e 89       	ldd	r25, Y+22	; 0x16
     45e:	0e 94 29 0f 	call	0x1e52	; 0x1e52 <__cmpsf2>
     462:	88 23       	and	r24, r24
     464:	2c f4       	brge	.+10     	; 0x470 <.L24>

00000466 <.Loc.13>:
		__ticks = 1;
     466:	81 e0       	ldi	r24, 0x01	; 1
     468:	90 e0       	ldi	r25, 0x00	; 0
     46a:	98 8f       	std	Y+24, r25	; 0x18
     46c:	8f 8b       	std	Y+23, r24	; 0x17
     46e:	55 c0       	rjmp	.+170    	; 0x51a <.L6>

00000470 <.L24>:
	else if (__tmp > 65535)
     470:	20 e0       	ldi	r18, 0x00	; 0
     472:	3f ef       	ldi	r19, 0xFF	; 255
     474:	4f e7       	ldi	r20, 0x7F	; 127
     476:	57 e4       	ldi	r21, 0x47	; 71
     478:	6b 89       	ldd	r22, Y+19	; 0x13
     47a:	7c 89       	ldd	r23, Y+20	; 0x14
     47c:	8d 89       	ldd	r24, Y+21	; 0x15
     47e:	9e 89       	ldd	r25, Y+22	; 0x16
     480:	0e 94 0f 10 	call	0x201e	; 0x201e <__gesf2>
     484:	88 23       	and	r24, r24
     486:	d9 f1       	breq	.+118    	; 0x4fe <.L25>
     488:	d4 f1       	brlt	.+116    	; 0x4fe <.L25>

0000048a <.Loc.15>:
	{
		//	__ticks = requested delay in 1/10 ms
		__ticks = (uint16_t) (__ms * 10.0);
     48a:	20 e0       	ldi	r18, 0x00	; 0
     48c:	30 e0       	ldi	r19, 0x00	; 0
     48e:	40 e2       	ldi	r20, 0x20	; 32
     490:	51 e4       	ldi	r21, 0x41	; 65
     492:	6f 85       	ldd	r22, Y+15	; 0x0f
     494:	78 89       	ldd	r23, Y+16	; 0x10
     496:	89 89       	ldd	r24, Y+17	; 0x11
     498:	9a 89       	ldd	r25, Y+18	; 0x12
     49a:	0e 94 14 10 	call	0x2028	; 0x2028 <__mulsf3>
     49e:	6b a7       	std	Y+43, r22	; 0x2b
     4a0:	7c a7       	std	Y+44, r23	; 0x2c
     4a2:	8d a7       	std	Y+45, r24	; 0x2d
     4a4:	9e a7       	std	Y+46, r25	; 0x2e
     4a6:	8b a5       	ldd	r24, Y+43	; 0x2b
     4a8:	9c a5       	ldd	r25, Y+44	; 0x2c
     4aa:	ad a5       	ldd	r26, Y+45	; 0x2d
     4ac:	be a5       	ldd	r27, Y+46	; 0x2e
     4ae:	8b a3       	std	Y+35, r24	; 0x23
     4b0:	9c a3       	std	Y+36, r25	; 0x24
     4b2:	ad a3       	std	Y+37, r26	; 0x25
     4b4:	be a3       	std	Y+38, r27	; 0x26

000004b6 <.Loc.16>:
     4b6:	6b a1       	ldd	r22, Y+35	; 0x23
     4b8:	7c a1       	ldd	r23, Y+36	; 0x24
     4ba:	8d a1       	ldd	r24, Y+37	; 0x25
     4bc:	9e a1       	ldd	r25, Y+38	; 0x26
     4be:	0e 94 2e 0f 	call	0x1e5c	; 0x1e5c <__fixunssfsi>
     4c2:	6f a7       	std	Y+47, r22	; 0x2f
     4c4:	78 ab       	std	Y+48, r23	; 0x30
     4c6:	89 ab       	std	Y+49, r24	; 0x31
     4c8:	9a ab       	std	Y+50, r25	; 0x32
     4ca:	af a5       	ldd	r26, Y+47	; 0x2f
     4cc:	b8 a9       	ldd	r27, Y+48	; 0x30
     4ce:	b8 8f       	std	Y+24, r27	; 0x18
     4d0:	af 8b       	std	Y+23, r26	; 0x17

000004d2 <.Loc.17>:
		while(__ticks)
     4d2:	10 c0       	rjmp	.+32     	; 0x4f4 <.L9>

000004d4 <.L10>:
     4d4:	80 e9       	ldi	r24, 0x90	; 144
     4d6:	91 e0       	ldi	r25, 0x01	; 1
     4d8:	9a 8f       	std	Y+26, r25	; 0x1a
     4da:	89 8f       	std	Y+25, r24	; 0x19

000004dc <.LBB52>:
		"sbc %B0,__zero_reg__"    "\n\t"
		"brne 1b"
		: "+d" (__count)
	);
#else
	__asm__ volatile (
     4dc:	89 8d       	ldd	r24, Y+25	; 0x19
     4de:	9a 8d       	ldd	r25, Y+26	; 0x1a

000004e0 <.L1^B1>:
     4e0:	01 97       	sbiw	r24, 0x01	; 1
     4e2:	f1 f7       	brne	.-4      	; 0x4e0 <.L1^B1>
     4e4:	9a 8f       	std	Y+26, r25	; 0x1a
     4e6:	89 8f       	std	Y+25, r24	; 0x19

000004e8 <.Loc.19>:
	...

000004ea <.LBE52>:
		{
			// wait 1/10 ms
			_delay_loop_2(((F_CPU) / 4e3) / 10);
			__ticks --;
     4ea:	8f 89       	ldd	r24, Y+23	; 0x17
     4ec:	98 8d       	ldd	r25, Y+24	; 0x18
     4ee:	01 97       	sbiw	r24, 0x01	; 1
     4f0:	98 8f       	std	Y+24, r25	; 0x18
     4f2:	8f 8b       	std	Y+23, r24	; 0x17

000004f4 <.L9>:
		while(__ticks)
     4f4:	8f 89       	ldd	r24, Y+23	; 0x17
     4f6:	98 8d       	ldd	r25, Y+24	; 0x18
     4f8:	00 97       	sbiw	r24, 0x00	; 0
     4fa:	61 f7       	brne	.-40     	; 0x4d4 <.L10>

000004fc <.Loc.22>:
		}
		return;
     4fc:	19 c0       	rjmp	.+50     	; 0x530 <.L11>

000004fe <.L25>:
	}
	else
		__ticks = (uint16_t)__tmp;
     4fe:	6b 89       	ldd	r22, Y+19	; 0x13
     500:	7c 89       	ldd	r23, Y+20	; 0x14
     502:	8d 89       	ldd	r24, Y+21	; 0x15
     504:	9e 89       	ldd	r25, Y+22	; 0x16
     506:	0e 94 2e 0f 	call	0x1e5c	; 0x1e5c <__fixunssfsi>
     50a:	6b ab       	std	Y+51, r22	; 0x33
     50c:	7c ab       	std	Y+52, r23	; 0x34
     50e:	8d ab       	std	Y+53, r24	; 0x35
     510:	9e ab       	std	Y+54, r25	; 0x36
     512:	eb a9       	ldd	r30, Y+51	; 0x33
     514:	fc a9       	ldd	r31, Y+52	; 0x34
     516:	f8 8f       	std	Y+24, r31	; 0x18
     518:	ef 8b       	std	Y+23, r30	; 0x17

0000051a <.L6>:
     51a:	8f 89       	ldd	r24, Y+23	; 0x17
     51c:	98 8d       	ldd	r25, Y+24	; 0x18
     51e:	9c 8f       	std	Y+28, r25	; 0x1c
     520:	8b 8f       	std	Y+27, r24	; 0x1b

00000522 <.LBB54>:
     522:	8b 8d       	ldd	r24, Y+27	; 0x1b
     524:	9c 8d       	ldd	r25, Y+28	; 0x1c

00000526 <.L1^B2>:
     526:	01 97       	sbiw	r24, 0x01	; 1
     528:	f1 f7       	brne	.-4      	; 0x526 <.L1^B2>
     52a:	9c 8f       	std	Y+28, r25	; 0x1c
     52c:	8b 8f       	std	Y+27, r24	; 0x1b

0000052e <.Loc.25>:
	...

00000530 <.L11>:
        _delay_ms(200);
        PORTB |= (1<<knipper_rood1);
     530:	85 e2       	ldi	r24, 0x25	; 37
     532:	90 e0       	ldi	r25, 0x00	; 0
     534:	dc 01       	movw	r26, r24
     536:	2c 91       	ld	r18, X
     538:	85 e2       	ldi	r24, 0x25	; 37
     53a:	90 e0       	ldi	r25, 0x00	; 0

0000053c <.Loc.27>:
     53c:	20 68       	ori	r18, 0x80	; 128
     53e:	fc 01       	movw	r30, r24
     540:	20 83       	st	Z, r18

00000542 <.Loc.28>:
        PORTB &= ~(1<<knipper_rood2);
     542:	85 e2       	ldi	r24, 0x25	; 37
     544:	90 e0       	ldi	r25, 0x00	; 0
     546:	dc 01       	movw	r26, r24
     548:	2c 91       	ld	r18, X

0000054a <.Loc.29>:
     54a:	85 e2       	ldi	r24, 0x25	; 37
     54c:	90 e0       	ldi	r25, 0x00	; 0

0000054e <.Loc.30>:
     54e:	2f 7b       	andi	r18, 0xBF	; 191
     550:	fc 01       	movw	r30, r24
     552:	20 83       	st	Z, r18
     554:	80 e0       	ldi	r24, 0x00	; 0
     556:	90 e0       	ldi	r25, 0x00	; 0
     558:	a8 e4       	ldi	r26, 0x48	; 72
     55a:	b3 e4       	ldi	r27, 0x43	; 67
     55c:	89 83       	std	Y+1, r24	; 0x01
     55e:	9a 83       	std	Y+2, r25	; 0x02
     560:	ab 83       	std	Y+3, r26	; 0x03
     562:	bc 83       	std	Y+4, r27	; 0x04

00000564 <.LBB56>:
	__tmp = ((F_CPU) / 4e3) * __ms;
     564:	20 e0       	ldi	r18, 0x00	; 0
     566:	30 e0       	ldi	r19, 0x00	; 0
     568:	4a e7       	ldi	r20, 0x7A	; 122
     56a:	55 e4       	ldi	r21, 0x45	; 69
     56c:	69 81       	ldd	r22, Y+1	; 0x01
     56e:	7a 81       	ldd	r23, Y+2	; 0x02
     570:	8b 81       	ldd	r24, Y+3	; 0x03
     572:	9c 81       	ldd	r25, Y+4	; 0x04
     574:	0e 94 14 10 	call	0x2028	; 0x2028 <__mulsf3>
     578:	6f ab       	std	Y+55, r22	; 0x37
     57a:	78 af       	std	Y+56, r23	; 0x38
     57c:	89 af       	std	Y+57, r24	; 0x39
     57e:	9a af       	std	Y+58, r25	; 0x3a
     580:	8f a9       	ldd	r24, Y+55	; 0x37
     582:	98 ad       	ldd	r25, Y+56	; 0x38
     584:	a9 ad       	ldd	r26, Y+57	; 0x39
     586:	ba ad       	ldd	r27, Y+58	; 0x3a
     588:	8d 83       	std	Y+5, r24	; 0x05
     58a:	9e 83       	std	Y+6, r25	; 0x06
     58c:	af 83       	std	Y+7, r26	; 0x07
     58e:	b8 87       	std	Y+8, r27	; 0x08

00000590 <.Loc.32>:
	if (__tmp < 1.0)
     590:	20 e0       	ldi	r18, 0x00	; 0
     592:	30 e0       	ldi	r19, 0x00	; 0
     594:	40 e8       	ldi	r20, 0x80	; 128
     596:	5f e3       	ldi	r21, 0x3F	; 63
     598:	6d 81       	ldd	r22, Y+5	; 0x05
     59a:	7e 81       	ldd	r23, Y+6	; 0x06
     59c:	8f 81       	ldd	r24, Y+7	; 0x07
     59e:	98 85       	ldd	r25, Y+8	; 0x08
     5a0:	0e 94 29 0f 	call	0x1e52	; 0x1e52 <__cmpsf2>
     5a4:	88 23       	and	r24, r24
     5a6:	2c f4       	brge	.+10     	; 0x5b2 <.L26>

000005a8 <.Loc.33>:
		__ticks = 1;
     5a8:	81 e0       	ldi	r24, 0x01	; 1
     5aa:	90 e0       	ldi	r25, 0x00	; 0
     5ac:	9a 87       	std	Y+10, r25	; 0x0a
     5ae:	89 87       	std	Y+9, r24	; 0x09
     5b0:	5e c0       	rjmp	.+188    	; 0x66e <.L14>

000005b2 <.L26>:
	else if (__tmp > 65535)
     5b2:	20 e0       	ldi	r18, 0x00	; 0
     5b4:	3f ef       	ldi	r19, 0xFF	; 255
     5b6:	4f e7       	ldi	r20, 0x7F	; 127
     5b8:	57 e4       	ldi	r21, 0x47	; 71
     5ba:	6d 81       	ldd	r22, Y+5	; 0x05
     5bc:	7e 81       	ldd	r23, Y+6	; 0x06
     5be:	8f 81       	ldd	r24, Y+7	; 0x07
     5c0:	98 85       	ldd	r25, Y+8	; 0x08
     5c2:	0e 94 0f 10 	call	0x201e	; 0x201e <__gesf2>
     5c6:	88 23       	and	r24, r24
     5c8:	09 f0       	breq	.+2      	; 0x5cc <L0^A>

000005ca <L0^A>:
     5ca:	0c f4       	brge	.+2      	; 0x5ce <.Loc.35>

000005cc <L0^A>:
     5cc:	3e c0       	rjmp	.+124    	; 0x64a <.L27>

000005ce <.Loc.35>:
		__ticks = (uint16_t) (__ms * 10.0);
     5ce:	20 e0       	ldi	r18, 0x00	; 0
     5d0:	30 e0       	ldi	r19, 0x00	; 0
     5d2:	40 e2       	ldi	r20, 0x20	; 32
     5d4:	51 e4       	ldi	r21, 0x41	; 65
     5d6:	69 81       	ldd	r22, Y+1	; 0x01
     5d8:	7a 81       	ldd	r23, Y+2	; 0x02
     5da:	8b 81       	ldd	r24, Y+3	; 0x03
     5dc:	9c 81       	ldd	r25, Y+4	; 0x04
     5de:	0e 94 14 10 	call	0x2028	; 0x2028 <__mulsf3>
     5e2:	6b af       	std	Y+59, r22	; 0x3b
     5e4:	7c af       	std	Y+60, r23	; 0x3c
     5e6:	8d af       	std	Y+61, r24	; 0x3d
     5e8:	9e af       	std	Y+62, r25	; 0x3e
     5ea:	8b ad       	ldd	r24, Y+59	; 0x3b
     5ec:	9c ad       	ldd	r25, Y+60	; 0x3c
     5ee:	ad ad       	ldd	r26, Y+61	; 0x3d
     5f0:	be ad       	ldd	r27, Y+62	; 0x3e
     5f2:	8f 8f       	std	Y+31, r24	; 0x1f
     5f4:	98 a3       	std	Y+32, r25	; 0x20
     5f6:	a9 a3       	std	Y+33, r26	; 0x21
     5f8:	ba a3       	std	Y+34, r27	; 0x22

000005fa <.Loc.36>:
     5fa:	6f 8d       	ldd	r22, Y+31	; 0x1f
     5fc:	78 a1       	ldd	r23, Y+32	; 0x20
     5fe:	89 a1       	ldd	r24, Y+33	; 0x21
     600:	9a a1       	ldd	r25, Y+34	; 0x22
     602:	0e 94 2e 0f 	call	0x1e5c	; 0x1e5c <__fixunssfsi>
     606:	23 96       	adiw	r28, 0x03	; 3
     608:	6c af       	std	Y+60, r22	; 0x3c
     60a:	7d af       	std	Y+61, r23	; 0x3d
     60c:	8e af       	std	Y+62, r24	; 0x3e
     60e:	9f af       	std	Y+63, r25	; 0x3f
     610:	23 97       	sbiw	r28, 0x03	; 3
     612:	21 96       	adiw	r28, 0x01	; 1
     614:	ae ad       	ldd	r26, Y+62	; 0x3e
     616:	bf ad       	ldd	r27, Y+63	; 0x3f
     618:	21 97       	sbiw	r28, 0x01	; 1
     61a:	ba 87       	std	Y+10, r27	; 0x0a
     61c:	a9 87       	std	Y+9, r26	; 0x09

0000061e <.Loc.37>:
		while(__ticks)
     61e:	10 c0       	rjmp	.+32     	; 0x640 <.L17>

00000620 <.L18>:
     620:	80 e9       	ldi	r24, 0x90	; 144
     622:	91 e0       	ldi	r25, 0x01	; 1
     624:	9c 87       	std	Y+12, r25	; 0x0c
     626:	8b 87       	std	Y+11, r24	; 0x0b

00000628 <.LBB58>:
     628:	8b 85       	ldd	r24, Y+11	; 0x0b
     62a:	9c 85       	ldd	r25, Y+12	; 0x0c

0000062c <.L1^B3>:
     62c:	01 97       	sbiw	r24, 0x01	; 1
     62e:	f1 f7       	brne	.-4      	; 0x62c <.L1^B3>
     630:	9c 87       	std	Y+12, r25	; 0x0c
     632:	8b 87       	std	Y+11, r24	; 0x0b

00000634 <.Loc.39>:
	...

00000636 <.LBE58>:
			__ticks --;
     636:	89 85       	ldd	r24, Y+9	; 0x09
     638:	9a 85       	ldd	r25, Y+10	; 0x0a
     63a:	01 97       	sbiw	r24, 0x01	; 1
     63c:	9a 87       	std	Y+10, r25	; 0x0a
     63e:	89 87       	std	Y+9, r24	; 0x09

00000640 <.L17>:
		while(__ticks)
     640:	89 85       	ldd	r24, Y+9	; 0x09
     642:	9a 85       	ldd	r25, Y+10	; 0x0a
     644:	00 97       	sbiw	r24, 0x00	; 0
     646:	61 f7       	brne	.-40     	; 0x620 <.L18>

00000648 <.Loc.42>:
		return;
     648:	1d c0       	rjmp	.+58     	; 0x684 <.L28>

0000064a <.L27>:
		__ticks = (uint16_t)__tmp;
     64a:	6d 81       	ldd	r22, Y+5	; 0x05
     64c:	7e 81       	ldd	r23, Y+6	; 0x06
     64e:	8f 81       	ldd	r24, Y+7	; 0x07
     650:	98 85       	ldd	r25, Y+8	; 0x08
     652:	0e 94 2e 0f 	call	0x1e5c	; 0x1e5c <__fixunssfsi>
     656:	27 96       	adiw	r28, 0x07	; 7
     658:	6c af       	std	Y+60, r22	; 0x3c
     65a:	7d af       	std	Y+61, r23	; 0x3d
     65c:	8e af       	std	Y+62, r24	; 0x3e
     65e:	9f af       	std	Y+63, r25	; 0x3f
     660:	27 97       	sbiw	r28, 0x07	; 7
     662:	25 96       	adiw	r28, 0x05	; 5
     664:	ee ad       	ldd	r30, Y+62	; 0x3e
     666:	ff ad       	ldd	r31, Y+63	; 0x3f
     668:	25 97       	sbiw	r28, 0x05	; 5
     66a:	fa 87       	std	Y+10, r31	; 0x0a
     66c:	e9 87       	std	Y+9, r30	; 0x09

0000066e <.L14>:
     66e:	89 85       	ldd	r24, Y+9	; 0x09
     670:	9a 85       	ldd	r25, Y+10	; 0x0a
     672:	9e 87       	std	Y+14, r25	; 0x0e
     674:	8d 87       	std	Y+13, r24	; 0x0d

00000676 <.LBB60>:
     676:	8d 85       	ldd	r24, Y+13	; 0x0d
     678:	9e 85       	ldd	r25, Y+14	; 0x0e

0000067a <.L1^B4>:
     67a:	01 97       	sbiw	r24, 0x01	; 1
     67c:	f1 f7       	brne	.-4      	; 0x67a <.L1^B4>
     67e:	9e 87       	std	Y+14, r25	; 0x0e
     680:	8d 87       	std	Y+13, r24	; 0x0d

00000682 <.Loc.45>:
	...

00000684 <.L28>:
        _delay_ms(200);
    }
}
     684:	00 00       	nop
     686:	ca 5b       	subi	r28, 0xBA	; 186
     688:	df 4f       	sbci	r29, 0xFF	; 255
     68a:	0f b6       	in	r0, 0x3f	; 63
     68c:	f8 94       	cli
     68e:	de bf       	out	0x3e, r29	; 62
     690:	0f be       	out	0x3f, r0	; 63
     692:	cd bf       	out	0x3d, r28	; 61
     694:	df 91       	pop	r29
     696:	cf 91       	pop	r28
     698:	08 95       	ret

0000069a <knipperlicht_rood_uit>:

void knipperlicht_rood_uit(int knip_uit)
{
     69a:	cf 93       	push	r28
     69c:	df 93       	push	r29
     69e:	0f 92       	push	r0
     6a0:	0f 92       	push	r0
     6a2:	cd b7       	in	r28, 0x3d	; 61
     6a4:	de b7       	in	r29, 0x3e	; 62
     6a6:	9a 83       	std	Y+2, r25	; 0x02
     6a8:	89 83       	std	Y+1, r24	; 0x01

000006aa <.Loc.48>:
    if (knip_uit == 1)
     6aa:	89 81       	ldd	r24, Y+1	; 0x01
     6ac:	9a 81       	ldd	r25, Y+2	; 0x02
     6ae:	81 30       	cpi	r24, 0x01	; 1
     6b0:	91 05       	cpc	r25, r1
     6b2:	91 f4       	brne	.+36     	; 0x6d8 <.L31>

000006b4 <.Loc.49>:
    {
        PORTB |= (1<<knipper_rood1);
     6b4:	85 e2       	ldi	r24, 0x25	; 37
     6b6:	90 e0       	ldi	r25, 0x00	; 0
     6b8:	fc 01       	movw	r30, r24
     6ba:	20 81       	ld	r18, Z
     6bc:	85 e2       	ldi	r24, 0x25	; 37
     6be:	90 e0       	ldi	r25, 0x00	; 0

000006c0 <.Loc.50>:
     6c0:	20 68       	ori	r18, 0x80	; 128
     6c2:	fc 01       	movw	r30, r24
     6c4:	20 83       	st	Z, r18

000006c6 <.Loc.51>:
        PORTB |= (1<<knipper_rood2);
     6c6:	85 e2       	ldi	r24, 0x25	; 37
     6c8:	90 e0       	ldi	r25, 0x00	; 0
     6ca:	fc 01       	movw	r30, r24
     6cc:	20 81       	ld	r18, Z
     6ce:	85 e2       	ldi	r24, 0x25	; 37
     6d0:	90 e0       	ldi	r25, 0x00	; 0

000006d2 <.Loc.52>:
     6d2:	20 64       	ori	r18, 0x40	; 64
     6d4:	fc 01       	movw	r30, r24
     6d6:	20 83       	st	Z, r18

000006d8 <.L31>:
    }
}
     6d8:	00 00       	nop
     6da:	0f 90       	pop	r0
     6dc:	0f 90       	pop	r0
     6de:	df 91       	pop	r29
     6e0:	cf 91       	pop	r28
     6e2:	08 95       	ret

000006e4 <slagbomen_dicht_R>:

void slagbomen_dicht_R(int slag_dicht_R)
{
     6e4:	cf 93       	push	r28
     6e6:	df 93       	push	r29
     6e8:	0f 92       	push	r0
     6ea:	0f 92       	push	r0
     6ec:	cd b7       	in	r28, 0x3d	; 61
     6ee:	de b7       	in	r29, 0x3e	; 62
     6f0:	9a 83       	std	Y+2, r25	; 0x02
     6f2:	89 83       	std	Y+1, r24	; 0x01

000006f4 <.Loc.55>:
    if (slag_dicht_R == 1)
     6f4:	89 81       	ldd	r24, Y+1	; 0x01
     6f6:	9a 81       	ldd	r25, Y+2	; 0x02
     6f8:	81 30       	cpi	r24, 0x01	; 1
     6fa:	91 05       	cpc	r25, r1
     6fc:	19 f4       	brne	.+6      	; 0x704 <.L34>

000006fe <.Loc.56>:
    {
        servo1_set_percentage(-80);
     6fe:	80 eb       	ldi	r24, 0xB0	; 176
     700:	0e 94 ac 0d 	call	0x1b58	; 0x1b58 <servo1_set_percentage>

00000704 <.L34>:
    }
}
     704:	00 00       	nop
     706:	0f 90       	pop	r0
     708:	0f 90       	pop	r0
     70a:	df 91       	pop	r29
     70c:	cf 91       	pop	r28
     70e:	08 95       	ret

00000710 <slagbomen_dicht_L>:

void slagbomen_dicht_L(int slag_dicht_L)
{
     710:	cf 93       	push	r28
     712:	df 93       	push	r29
     714:	0f 92       	push	r0
     716:	0f 92       	push	r0
     718:	cd b7       	in	r28, 0x3d	; 61
     71a:	de b7       	in	r29, 0x3e	; 62
     71c:	9a 83       	std	Y+2, r25	; 0x02
     71e:	89 83       	std	Y+1, r24	; 0x01

00000720 <.Loc.59>:
    if (slag_dicht_L == 1)
     720:	89 81       	ldd	r24, Y+1	; 0x01
     722:	9a 81       	ldd	r25, Y+2	; 0x02
     724:	81 30       	cpi	r24, 0x01	; 1
     726:	91 05       	cpc	r25, r1
     728:	19 f4       	brne	.+6      	; 0x730 <.L37>

0000072a <.Loc.60>:
    {
        servo2_set_percentage(-80);
     72a:	80 eb       	ldi	r24, 0xB0	; 176
     72c:	0e 94 20 0e 	call	0x1c40	; 0x1c40 <servo2_set_percentage>

00000730 <.L37>:
    }
}
     730:	00 00       	nop
     732:	0f 90       	pop	r0
     734:	0f 90       	pop	r0
     736:	df 91       	pop	r29
     738:	cf 91       	pop	r28
     73a:	08 95       	ret

0000073c <slagbomen_open>:

void slagbomen_open(int slag_open)
{
     73c:	cf 93       	push	r28
     73e:	df 93       	push	r29
     740:	0f 92       	push	r0
     742:	0f 92       	push	r0
     744:	cd b7       	in	r28, 0x3d	; 61
     746:	de b7       	in	r29, 0x3e	; 62
     748:	9a 83       	std	Y+2, r25	; 0x02
     74a:	89 83       	std	Y+1, r24	; 0x01

0000074c <.Loc.63>:
    if (slag_open == 1)
     74c:	89 81       	ldd	r24, Y+1	; 0x01
     74e:	9a 81       	ldd	r25, Y+2	; 0x02
     750:	81 30       	cpi	r24, 0x01	; 1
     752:	91 05       	cpc	r25, r1
     754:	31 f4       	brne	.+12     	; 0x762 <.L40>

00000756 <.Loc.64>:
    {
        servo1_set_percentage(80);
     756:	80 e5       	ldi	r24, 0x50	; 80
     758:	0e 94 ac 0d 	call	0x1b58	; 0x1b58 <servo1_set_percentage>

0000075c <.Loc.65>:
        servo2_set_percentage(80);
     75c:	80 e5       	ldi	r24, 0x50	; 80
     75e:	0e 94 20 0e 	call	0x1c40	; 0x1c40 <servo2_set_percentage>

00000762 <.L40>:
    }
}
     762:	00 00       	nop
     764:	0f 90       	pop	r0
     766:	0f 90       	pop	r0
     768:	df 91       	pop	r29
     76a:	cf 91       	pop	r28
     76c:	08 95       	ret

0000076e <brug_open>:

void brug_open(int b_open)
{
     76e:	cf 93       	push	r28
     770:	df 93       	push	r29
     772:	0f 92       	push	r0
     774:	0f 92       	push	r0
     776:	cd b7       	in	r28, 0x3d	; 61
     778:	de b7       	in	r29, 0x3e	; 62
     77a:	9a 83       	std	Y+2, r25	; 0x02
     77c:	89 83       	std	Y+1, r24	; 0x01

0000077e <.Loc.68>:
    if (b_open == 1)
     77e:	89 81       	ldd	r24, Y+1	; 0x01
     780:	9a 81       	ldd	r25, Y+2	; 0x02
     782:	81 30       	cpi	r24, 0x01	; 1
     784:	91 05       	cpc	r25, r1
     786:	21 f4       	brne	.+8      	; 0x790 <.L42>

00000788 <.Loc.69>:
    {
        h_bridge_set_percentage(33);
     788:	81 e2       	ldi	r24, 0x21	; 33
     78a:	0e 94 8e 01 	call	0x31c	; 0x31c <h_bridge_set_percentage>

0000078e <.Loc.70>:
    }
    else if (b_open == 0)
    {
        h_bridge_set_percentage(0);
    }
}
     78e:	07 c0       	rjmp	.+14     	; 0x79e <.L44>

00000790 <.L42>:
    else if (b_open == 0)
     790:	89 81       	ldd	r24, Y+1	; 0x01
     792:	9a 81       	ldd	r25, Y+2	; 0x02
     794:	00 97       	sbiw	r24, 0x00	; 0
     796:	19 f4       	brne	.+6      	; 0x79e <.L44>

00000798 <.Loc.72>:
        h_bridge_set_percentage(0);
     798:	80 e0       	ldi	r24, 0x00	; 0
     79a:	0e 94 8e 01 	call	0x31c	; 0x31c <h_bridge_set_percentage>

0000079e <.L44>:
}
     79e:	00 00       	nop
     7a0:	0f 90       	pop	r0
     7a2:	0f 90       	pop	r0
     7a4:	df 91       	pop	r29
     7a6:	cf 91       	pop	r28
     7a8:	08 95       	ret

000007aa <brug_dicht>:

void brug_dicht(int b_dicht)
{
     7aa:	cf 93       	push	r28
     7ac:	df 93       	push	r29
     7ae:	0f 92       	push	r0
     7b0:	0f 92       	push	r0
     7b2:	cd b7       	in	r28, 0x3d	; 61
     7b4:	de b7       	in	r29, 0x3e	; 62
     7b6:	9a 83       	std	Y+2, r25	; 0x02
     7b8:	89 83       	std	Y+1, r24	; 0x01

000007ba <.Loc.75>:
    if (b_dicht == 1)
     7ba:	89 81       	ldd	r24, Y+1	; 0x01
     7bc:	9a 81       	ldd	r25, Y+2	; 0x02
     7be:	81 30       	cpi	r24, 0x01	; 1
     7c0:	91 05       	cpc	r25, r1
     7c2:	21 f4       	brne	.+8      	; 0x7cc <.L46>

000007c4 <.Loc.76>:
    {
        h_bridge_set_percentage(-33);
     7c4:	8f ed       	ldi	r24, 0xDF	; 223
     7c6:	0e 94 8e 01 	call	0x31c	; 0x31c <h_bridge_set_percentage>

000007ca <.Loc.77>:
    }
    else if (b_dicht == 0)
    {
        h_bridge_set_percentage(0);
    }
}
     7ca:	07 c0       	rjmp	.+14     	; 0x7da <.L48>

000007cc <.L46>:
    else if (b_dicht == 0)
     7cc:	89 81       	ldd	r24, Y+1	; 0x01
     7ce:	9a 81       	ldd	r25, Y+2	; 0x02
     7d0:	00 97       	sbiw	r24, 0x00	; 0
     7d2:	19 f4       	brne	.+6      	; 0x7da <.L48>

000007d4 <.Loc.79>:
        h_bridge_set_percentage(0);
     7d4:	80 e0       	ldi	r24, 0x00	; 0
     7d6:	0e 94 8e 01 	call	0x31c	; 0x31c <h_bridge_set_percentage>

000007da <.L48>:
}
     7da:	00 00       	nop
     7dc:	0f 90       	pop	r0
     7de:	0f 90       	pop	r0
     7e0:	df 91       	pop	r29
     7e2:	cf 91       	pop	r28
     7e4:	08 95       	ret

000007e6 <lichten_binnenkort_open>:

void lichten_binnenkort_open(int Binnenkort_open_aan)
{
     7e6:	cf 93       	push	r28
     7e8:	df 93       	push	r29
     7ea:	0f 92       	push	r0
     7ec:	0f 92       	push	r0
     7ee:	cd b7       	in	r28, 0x3d	; 61
     7f0:	de b7       	in	r29, 0x3e	; 62
     7f2:	9a 83       	std	Y+2, r25	; 0x02
     7f4:	89 83       	std	Y+1, r24	; 0x01

000007f6 <.Loc.82>:
    if (Binnenkort_open_aan == 1)
     7f6:	89 81       	ldd	r24, Y+1	; 0x01
     7f8:	9a 81       	ldd	r25, Y+2	; 0x02
     7fa:	81 30       	cpi	r24, 0x01	; 1
     7fc:	91 05       	cpc	r25, r1
     7fe:	b1 f5       	brne	.+108    	; 0x86c <.L51>

00000800 <.Loc.83>:
    {
        PORTL &= ~(1<<LED_Rood_1R);     // aan
     800:	8b e0       	ldi	r24, 0x0B	; 11
     802:	91 e0       	ldi	r25, 0x01	; 1
     804:	fc 01       	movw	r30, r24
     806:	20 81       	ld	r18, Z

00000808 <.Loc.84>:
     808:	8b e0       	ldi	r24, 0x0B	; 11
     80a:	91 e0       	ldi	r25, 0x01	; 1

0000080c <.Loc.85>:
     80c:	2f 7e       	andi	r18, 0xEF	; 239
     80e:	fc 01       	movw	r30, r24
     810:	20 83       	st	Z, r18

00000812 <.Loc.86>:
        PORTL |= (1<<LED_GroenR);       // aan
     812:	8b e0       	ldi	r24, 0x0B	; 11
     814:	91 e0       	ldi	r25, 0x01	; 1
     816:	fc 01       	movw	r30, r24
     818:	20 81       	ld	r18, Z
     81a:	8b e0       	ldi	r24, 0x0B	; 11
     81c:	91 e0       	ldi	r25, 0x01	; 1

0000081e <.Loc.87>:
     81e:	28 60       	ori	r18, 0x08	; 8
     820:	fc 01       	movw	r30, r24
     822:	20 83       	st	Z, r18

00000824 <.Loc.88>:
        PORTL |= (1<<LED_Rood_2R);      // uit
     824:	8b e0       	ldi	r24, 0x0B	; 11
     826:	91 e0       	ldi	r25, 0x01	; 1
     828:	fc 01       	movw	r30, r24
     82a:	20 81       	ld	r18, Z
     82c:	8b e0       	ldi	r24, 0x0B	; 11
     82e:	91 e0       	ldi	r25, 0x01	; 1

00000830 <.Loc.89>:
     830:	20 62       	ori	r18, 0x20	; 32
     832:	fc 01       	movw	r30, r24
     834:	20 83       	st	Z, r18

00000836 <.Loc.90>:
        //--linker lichten er bij--//
        PORTL &= ~(1<<LED_Rood_1L);     // aan
     836:	8b e0       	ldi	r24, 0x0B	; 11
     838:	91 e0       	ldi	r25, 0x01	; 1
     83a:	fc 01       	movw	r30, r24
     83c:	20 81       	ld	r18, Z

0000083e <.Loc.91>:
     83e:	8b e0       	ldi	r24, 0x0B	; 11
     840:	91 e0       	ldi	r25, 0x01	; 1

00000842 <.Loc.92>:
     842:	2f 7b       	andi	r18, 0xBF	; 191
     844:	fc 01       	movw	r30, r24
     846:	20 83       	st	Z, r18

00000848 <.Loc.93>:
        PORTL |= (1<<LED_GroenL);       // aan
     848:	8b e0       	ldi	r24, 0x0B	; 11
     84a:	91 e0       	ldi	r25, 0x01	; 1
     84c:	fc 01       	movw	r30, r24
     84e:	20 81       	ld	r18, Z
     850:	8b e0       	ldi	r24, 0x0B	; 11
     852:	91 e0       	ldi	r25, 0x01	; 1

00000854 <.Loc.94>:
     854:	20 68       	ori	r18, 0x80	; 128
     856:	fc 01       	movw	r30, r24
     858:	20 83       	st	Z, r18

0000085a <.Loc.95>:
        PORTG |= (1<<LED_Rood_2L);      // uit
     85a:	84 e3       	ldi	r24, 0x34	; 52
     85c:	90 e0       	ldi	r25, 0x00	; 0
     85e:	fc 01       	movw	r30, r24
     860:	20 81       	ld	r18, Z
     862:	84 e3       	ldi	r24, 0x34	; 52
     864:	90 e0       	ldi	r25, 0x00	; 0

00000866 <.Loc.96>:
     866:	21 60       	ori	r18, 0x01	; 1
     868:	fc 01       	movw	r30, r24
     86a:	20 83       	st	Z, r18

0000086c <.L51>:
    }
}
     86c:	00 00       	nop
     86e:	0f 90       	pop	r0
     870:	0f 90       	pop	r0
     872:	df 91       	pop	r29
     874:	cf 91       	pop	r28
     876:	08 95       	ret

00000878 <lichten_verboden>:

void lichten_verboden(int verboden)
{
     878:	cf 93       	push	r28
     87a:	df 93       	push	r29
     87c:	0f 92       	push	r0
     87e:	0f 92       	push	r0
     880:	cd b7       	in	r28, 0x3d	; 61
     882:	de b7       	in	r29, 0x3e	; 62
     884:	9a 83       	std	Y+2, r25	; 0x02
     886:	89 83       	std	Y+1, r24	; 0x01

00000888 <.Loc.99>:
    if (verboden == 1)
     888:	89 81       	ldd	r24, Y+1	; 0x01
     88a:	9a 81       	ldd	r25, Y+2	; 0x02
     88c:	81 30       	cpi	r24, 0x01	; 1
     88e:	91 05       	cpc	r25, r1
     890:	b1 f5       	brne	.+108    	; 0x8fe <.L54>

00000892 <.Loc.100>:
    {
        PORTL &= ~(1<<LED_Rood_1R);     // aan
     892:	8b e0       	ldi	r24, 0x0B	; 11
     894:	91 e0       	ldi	r25, 0x01	; 1
     896:	fc 01       	movw	r30, r24
     898:	20 81       	ld	r18, Z

0000089a <.Loc.101>:
     89a:	8b e0       	ldi	r24, 0x0B	; 11
     89c:	91 e0       	ldi	r25, 0x01	; 1

0000089e <.Loc.102>:
     89e:	2f 7e       	andi	r18, 0xEF	; 239
     8a0:	fc 01       	movw	r30, r24
     8a2:	20 83       	st	Z, r18

000008a4 <.Loc.103>:
        PORTL &= ~(1<<LED_GroenR);      // uit
     8a4:	8b e0       	ldi	r24, 0x0B	; 11
     8a6:	91 e0       	ldi	r25, 0x01	; 1
     8a8:	fc 01       	movw	r30, r24
     8aa:	20 81       	ld	r18, Z

000008ac <.Loc.104>:
     8ac:	8b e0       	ldi	r24, 0x0B	; 11
     8ae:	91 e0       	ldi	r25, 0x01	; 1

000008b0 <.Loc.105>:
     8b0:	27 7f       	andi	r18, 0xF7	; 247
     8b2:	fc 01       	movw	r30, r24
     8b4:	20 83       	st	Z, r18

000008b6 <.Loc.106>:
        PORTL |= (1<<LED_Rood_2R);      // uit
     8b6:	8b e0       	ldi	r24, 0x0B	; 11
     8b8:	91 e0       	ldi	r25, 0x01	; 1
     8ba:	fc 01       	movw	r30, r24
     8bc:	20 81       	ld	r18, Z
     8be:	8b e0       	ldi	r24, 0x0B	; 11
     8c0:	91 e0       	ldi	r25, 0x01	; 1

000008c2 <.Loc.107>:
     8c2:	20 62       	ori	r18, 0x20	; 32
     8c4:	fc 01       	movw	r30, r24
     8c6:	20 83       	st	Z, r18

000008c8 <.Loc.108>:
        //----------------------//
        PORTL &= ~(1<<LED_Rood_1L);     // aan
     8c8:	8b e0       	ldi	r24, 0x0B	; 11
     8ca:	91 e0       	ldi	r25, 0x01	; 1
     8cc:	fc 01       	movw	r30, r24
     8ce:	20 81       	ld	r18, Z

000008d0 <.Loc.109>:
     8d0:	8b e0       	ldi	r24, 0x0B	; 11
     8d2:	91 e0       	ldi	r25, 0x01	; 1

000008d4 <.Loc.110>:
     8d4:	2f 7b       	andi	r18, 0xBF	; 191
     8d6:	fc 01       	movw	r30, r24
     8d8:	20 83       	st	Z, r18

000008da <.Loc.111>:
        PORTL &= ~(1<<LED_GroenR);      // uit
     8da:	8b e0       	ldi	r24, 0x0B	; 11
     8dc:	91 e0       	ldi	r25, 0x01	; 1
     8de:	fc 01       	movw	r30, r24
     8e0:	20 81       	ld	r18, Z

000008e2 <.Loc.112>:
     8e2:	8b e0       	ldi	r24, 0x0B	; 11
     8e4:	91 e0       	ldi	r25, 0x01	; 1

000008e6 <.Loc.113>:
     8e6:	27 7f       	andi	r18, 0xF7	; 247
     8e8:	fc 01       	movw	r30, r24
     8ea:	20 83       	st	Z, r18

000008ec <.Loc.114>:
        PORTG |= (1<<LED_Rood_2R);      // uit
     8ec:	84 e3       	ldi	r24, 0x34	; 52
     8ee:	90 e0       	ldi	r25, 0x00	; 0
     8f0:	fc 01       	movw	r30, r24
     8f2:	20 81       	ld	r18, Z
     8f4:	84 e3       	ldi	r24, 0x34	; 52
     8f6:	90 e0       	ldi	r25, 0x00	; 0

000008f8 <.Loc.115>:
     8f8:	20 62       	ori	r18, 0x20	; 32
     8fa:	fc 01       	movw	r30, r24
     8fc:	20 83       	st	Z, r18

000008fe <.L54>:
    }
}
     8fe:	00 00       	nop
     900:	0f 90       	pop	r0
     902:	0f 90       	pop	r0
     904:	df 91       	pop	r29
     906:	cf 91       	pop	r28
     908:	08 95       	ret

0000090a <lichten_doorvaart_R>:

void lichten_doorvaart_R(int doorvaart_R)
{
     90a:	cf 93       	push	r28
     90c:	df 93       	push	r29
     90e:	0f 92       	push	r0
     910:	0f 92       	push	r0
     912:	cd b7       	in	r28, 0x3d	; 61
     914:	de b7       	in	r29, 0x3e	; 62
     916:	9a 83       	std	Y+2, r25	; 0x02
     918:	89 83       	std	Y+1, r24	; 0x01

0000091a <.Loc.118>:
    if (doorvaart_R == 1)
     91a:	89 81       	ldd	r24, Y+1	; 0x01
     91c:	9a 81       	ldd	r25, Y+2	; 0x02
     91e:	81 30       	cpi	r24, 0x01	; 1
     920:	91 05       	cpc	r25, r1
     922:	b1 f5       	brne	.+108    	; 0x990 <.L57>

00000924 <.Loc.119>:
    {
        PORTL &= ~(1<<LED_Rood_1R);     // uit
     924:	8b e0       	ldi	r24, 0x0B	; 11
     926:	91 e0       	ldi	r25, 0x01	; 1
     928:	fc 01       	movw	r30, r24
     92a:	20 81       	ld	r18, Z

0000092c <.Loc.120>:
     92c:	8b e0       	ldi	r24, 0x0B	; 11
     92e:	91 e0       	ldi	r25, 0x01	; 1

00000930 <.Loc.121>:
     930:	2f 7e       	andi	r18, 0xEF	; 239
     932:	fc 01       	movw	r30, r24
     934:	20 83       	st	Z, r18

00000936 <.Loc.122>:
        PORTL |= (1<<LED_GroenR);       // aan
     936:	8b e0       	ldi	r24, 0x0B	; 11
     938:	91 e0       	ldi	r25, 0x01	; 1
     93a:	fc 01       	movw	r30, r24
     93c:	20 81       	ld	r18, Z
     93e:	8b e0       	ldi	r24, 0x0B	; 11
     940:	91 e0       	ldi	r25, 0x01	; 1

00000942 <.Loc.123>:
     942:	28 60       	ori	r18, 0x08	; 8
     944:	fc 01       	movw	r30, r24
     946:	20 83       	st	Z, r18

00000948 <.Loc.124>:
        PORTL &= ~(1<<LED_Rood_2R);     // uit
     948:	8b e0       	ldi	r24, 0x0B	; 11
     94a:	91 e0       	ldi	r25, 0x01	; 1
     94c:	fc 01       	movw	r30, r24
     94e:	20 81       	ld	r18, Z

00000950 <.Loc.125>:
     950:	8b e0       	ldi	r24, 0x0B	; 11
     952:	91 e0       	ldi	r25, 0x01	; 1

00000954 <.Loc.126>:
     954:	2f 7d       	andi	r18, 0xDF	; 223
     956:	fc 01       	movw	r30, r24
     958:	20 83       	st	Z, r18

0000095a <.Loc.127>:
        //----------------------//
        PORTL |= (1<<LED_Rood_1L);      // aan
     95a:	8b e0       	ldi	r24, 0x0B	; 11
     95c:	91 e0       	ldi	r25, 0x01	; 1
     95e:	fc 01       	movw	r30, r24
     960:	20 81       	ld	r18, Z
     962:	8b e0       	ldi	r24, 0x0B	; 11
     964:	91 e0       	ldi	r25, 0x01	; 1

00000966 <.Loc.128>:
     966:	20 64       	ori	r18, 0x40	; 64
     968:	fc 01       	movw	r30, r24
     96a:	20 83       	st	Z, r18

0000096c <.Loc.129>:
        PORTL |= (1<<LED_GroenL);       // aan
     96c:	8b e0       	ldi	r24, 0x0B	; 11
     96e:	91 e0       	ldi	r25, 0x01	; 1
     970:	fc 01       	movw	r30, r24
     972:	20 81       	ld	r18, Z
     974:	8b e0       	ldi	r24, 0x0B	; 11
     976:	91 e0       	ldi	r25, 0x01	; 1

00000978 <.Loc.130>:
     978:	20 68       	ori	r18, 0x80	; 128
     97a:	fc 01       	movw	r30, r24
     97c:	20 83       	st	Z, r18

0000097e <.Loc.131>:
        PORTG &= ~(1<<LED_Rood_2L);     // uit
     97e:	84 e3       	ldi	r24, 0x34	; 52
     980:	90 e0       	ldi	r25, 0x00	; 0
     982:	fc 01       	movw	r30, r24
     984:	20 81       	ld	r18, Z

00000986 <.Loc.132>:
     986:	84 e3       	ldi	r24, 0x34	; 52
     988:	90 e0       	ldi	r25, 0x00	; 0

0000098a <.Loc.133>:
     98a:	2e 7f       	andi	r18, 0xFE	; 254
     98c:	fc 01       	movw	r30, r24
     98e:	20 83       	st	Z, r18

00000990 <.L57>:
    }
}
     990:	00 00       	nop
     992:	0f 90       	pop	r0
     994:	0f 90       	pop	r0
     996:	df 91       	pop	r29
     998:	cf 91       	pop	r28
     99a:	08 95       	ret

0000099c <lichten_doorvaart_L>:

void lichten_doorvaart_L(int doorvaart_L)
{
     99c:	cf 93       	push	r28
     99e:	df 93       	push	r29
     9a0:	0f 92       	push	r0
     9a2:	0f 92       	push	r0
     9a4:	cd b7       	in	r28, 0x3d	; 61
     9a6:	de b7       	in	r29, 0x3e	; 62
     9a8:	9a 83       	std	Y+2, r25	; 0x02
     9aa:	89 83       	std	Y+1, r24	; 0x01

000009ac <.Loc.136>:
    if (doorvaart_L == 1)
     9ac:	89 81       	ldd	r24, Y+1	; 0x01
     9ae:	9a 81       	ldd	r25, Y+2	; 0x02
     9b0:	81 30       	cpi	r24, 0x01	; 1
     9b2:	91 05       	cpc	r25, r1
     9b4:	b1 f5       	brne	.+108    	; 0xa22 <.L60>

000009b6 <.Loc.137>:
    {
        PORTL |= (1<<LED_Rood_1R);      // aan
     9b6:	8b e0       	ldi	r24, 0x0B	; 11
     9b8:	91 e0       	ldi	r25, 0x01	; 1
     9ba:	fc 01       	movw	r30, r24
     9bc:	20 81       	ld	r18, Z
     9be:	8b e0       	ldi	r24, 0x0B	; 11
     9c0:	91 e0       	ldi	r25, 0x01	; 1

000009c2 <.Loc.138>:
     9c2:	20 61       	ori	r18, 0x10	; 16
     9c4:	fc 01       	movw	r30, r24
     9c6:	20 83       	st	Z, r18

000009c8 <.Loc.139>:
        PORTL |= (1<<LED_GroenR);       // aan
     9c8:	8b e0       	ldi	r24, 0x0B	; 11
     9ca:	91 e0       	ldi	r25, 0x01	; 1
     9cc:	fc 01       	movw	r30, r24
     9ce:	20 81       	ld	r18, Z
     9d0:	8b e0       	ldi	r24, 0x0B	; 11
     9d2:	91 e0       	ldi	r25, 0x01	; 1

000009d4 <.Loc.140>:
     9d4:	28 60       	ori	r18, 0x08	; 8
     9d6:	fc 01       	movw	r30, r24
     9d8:	20 83       	st	Z, r18

000009da <.Loc.141>:
        PORTL &= ~(1<<LED_Rood_2R);     // uit
     9da:	8b e0       	ldi	r24, 0x0B	; 11
     9dc:	91 e0       	ldi	r25, 0x01	; 1
     9de:	fc 01       	movw	r30, r24
     9e0:	20 81       	ld	r18, Z

000009e2 <.Loc.142>:
     9e2:	8b e0       	ldi	r24, 0x0B	; 11
     9e4:	91 e0       	ldi	r25, 0x01	; 1

000009e6 <.Loc.143>:
     9e6:	2f 7d       	andi	r18, 0xDF	; 223
     9e8:	fc 01       	movw	r30, r24
     9ea:	20 83       	st	Z, r18

000009ec <.Loc.144>:
        //----------------------//
        PORTL &= ~(1<<LED_Rood_1L);     // uit
     9ec:	8b e0       	ldi	r24, 0x0B	; 11
     9ee:	91 e0       	ldi	r25, 0x01	; 1
     9f0:	fc 01       	movw	r30, r24
     9f2:	20 81       	ld	r18, Z

000009f4 <.Loc.145>:
     9f4:	8b e0       	ldi	r24, 0x0B	; 11
     9f6:	91 e0       	ldi	r25, 0x01	; 1

000009f8 <.Loc.146>:
     9f8:	2f 7b       	andi	r18, 0xBF	; 191
     9fa:	fc 01       	movw	r30, r24
     9fc:	20 83       	st	Z, r18

000009fe <.Loc.147>:
        PORTL |= (1<<LED_GroenL);       // aan
     9fe:	8b e0       	ldi	r24, 0x0B	; 11
     a00:	91 e0       	ldi	r25, 0x01	; 1
     a02:	fc 01       	movw	r30, r24
     a04:	20 81       	ld	r18, Z
     a06:	8b e0       	ldi	r24, 0x0B	; 11
     a08:	91 e0       	ldi	r25, 0x01	; 1

00000a0a <.Loc.148>:
     a0a:	20 68       	ori	r18, 0x80	; 128
     a0c:	fc 01       	movw	r30, r24
     a0e:	20 83       	st	Z, r18

00000a10 <.Loc.149>:
        PORTG &= ~(1<<LED_Rood_2L);     // uit
     a10:	84 e3       	ldi	r24, 0x34	; 52
     a12:	90 e0       	ldi	r25, 0x00	; 0
     a14:	fc 01       	movw	r30, r24
     a16:	20 81       	ld	r18, Z

00000a18 <.Loc.150>:
     a18:	84 e3       	ldi	r24, 0x34	; 52
     a1a:	90 e0       	ldi	r25, 0x00	; 0

00000a1c <.Loc.151>:
     a1c:	2e 7f       	andi	r18, 0xFE	; 254
     a1e:	fc 01       	movw	r30, r24
     a20:	20 83       	st	Z, r18

00000a22 <.L60>:
    }
}
     a22:	00 00       	nop
     a24:	0f 90       	pop	r0
     a26:	0f 90       	pop	r0
     a28:	df 91       	pop	r29
     a2a:	cf 91       	pop	r28
     a2c:	08 95       	ret

00000a2e <geel_1_aan>:

void geel_1_aan(int toegestaan)
{
     a2e:	cf 93       	push	r28
     a30:	df 93       	push	r29
     a32:	0f 92       	push	r0
     a34:	0f 92       	push	r0
     a36:	cd b7       	in	r28, 0x3d	; 61
     a38:	de b7       	in	r29, 0x3e	; 62
     a3a:	9a 83       	std	Y+2, r25	; 0x02
     a3c:	89 83       	std	Y+1, r24	; 0x01

00000a3e <.Loc.154>:
    if (toegestaan == 1)
     a3e:	89 81       	ldd	r24, Y+1	; 0x01
     a40:	9a 81       	ldd	r25, Y+2	; 0x02
     a42:	81 30       	cpi	r24, 0x01	; 1
     a44:	91 05       	cpc	r25, r1
     a46:	91 f4       	brne	.+36     	; 0xa6c <.L63>

00000a48 <.Loc.155>:
    {
        PORTC |= (1<<LED_Geel_1);       // aan
     a48:	88 e2       	ldi	r24, 0x28	; 40
     a4a:	90 e0       	ldi	r25, 0x00	; 0
     a4c:	fc 01       	movw	r30, r24
     a4e:	20 81       	ld	r18, Z
     a50:	88 e2       	ldi	r24, 0x28	; 40
     a52:	90 e0       	ldi	r25, 0x00	; 0

00000a54 <.Loc.156>:
     a54:	22 60       	ori	r18, 0x02	; 2
     a56:	fc 01       	movw	r30, r24
     a58:	20 83       	st	Z, r18

00000a5a <.Loc.157>:
        PORTC &= ~(1<<LED_Geel_2);      // uit
     a5a:	88 e2       	ldi	r24, 0x28	; 40
     a5c:	90 e0       	ldi	r25, 0x00	; 0
     a5e:	fc 01       	movw	r30, r24
     a60:	20 81       	ld	r18, Z

00000a62 <.Loc.158>:
     a62:	88 e2       	ldi	r24, 0x28	; 40
     a64:	90 e0       	ldi	r25, 0x00	; 0

00000a66 <.Loc.159>:
     a66:	2e 7f       	andi	r18, 0xFE	; 254
     a68:	fc 01       	movw	r30, r24
     a6a:	20 83       	st	Z, r18

00000a6c <.L63>:
    }
}
     a6c:	00 00       	nop
     a6e:	0f 90       	pop	r0
     a70:	0f 90       	pop	r0
     a72:	df 91       	pop	r29
     a74:	cf 91       	pop	r28
     a76:	08 95       	ret

00000a78 <geel_1_uit>:

void geel_1_uit(int toegestaan)
{
     a78:	cf 93       	push	r28
     a7a:	df 93       	push	r29
     a7c:	0f 92       	push	r0
     a7e:	0f 92       	push	r0
     a80:	cd b7       	in	r28, 0x3d	; 61
     a82:	de b7       	in	r29, 0x3e	; 62
     a84:	9a 83       	std	Y+2, r25	; 0x02
     a86:	89 83       	std	Y+1, r24	; 0x01

00000a88 <.Loc.162>:
    if (toegestaan == 1)
     a88:	89 81       	ldd	r24, Y+1	; 0x01
     a8a:	9a 81       	ldd	r25, Y+2	; 0x02
     a8c:	81 30       	cpi	r24, 0x01	; 1
     a8e:	91 05       	cpc	r25, r1
     a90:	91 f4       	brne	.+36     	; 0xab6 <.L66>

00000a92 <.Loc.163>:
    {
        PORTC &= ~(1<<LED_Geel_1);      // uit
     a92:	88 e2       	ldi	r24, 0x28	; 40
     a94:	90 e0       	ldi	r25, 0x00	; 0
     a96:	fc 01       	movw	r30, r24
     a98:	20 81       	ld	r18, Z

00000a9a <.Loc.164>:
     a9a:	88 e2       	ldi	r24, 0x28	; 40
     a9c:	90 e0       	ldi	r25, 0x00	; 0

00000a9e <.Loc.165>:
     a9e:	2d 7f       	andi	r18, 0xFD	; 253
     aa0:	fc 01       	movw	r30, r24
     aa2:	20 83       	st	Z, r18

00000aa4 <.Loc.166>:
        PORTC &= ~(1<<LED_Geel_2);      // uit
     aa4:	88 e2       	ldi	r24, 0x28	; 40
     aa6:	90 e0       	ldi	r25, 0x00	; 0
     aa8:	fc 01       	movw	r30, r24
     aaa:	20 81       	ld	r18, Z

00000aac <.Loc.167>:
     aac:	88 e2       	ldi	r24, 0x28	; 40
     aae:	90 e0       	ldi	r25, 0x00	; 0

00000ab0 <.Loc.168>:
     ab0:	2e 7f       	andi	r18, 0xFE	; 254
     ab2:	fc 01       	movw	r30, r24
     ab4:	20 83       	st	Z, r18

00000ab6 <.L66>:
    }
}
     ab6:	00 00       	nop
     ab8:	0f 90       	pop	r0
     aba:	0f 90       	pop	r0
     abc:	df 91       	pop	r29
     abe:	cf 91       	pop	r28
     ac0:	08 95       	ret

00000ac2 <geel_2_aan>:

void geel_2_aan(int geel_2_a)
{
     ac2:	cf 93       	push	r28
     ac4:	df 93       	push	r29
     ac6:	0f 92       	push	r0
     ac8:	0f 92       	push	r0
     aca:	cd b7       	in	r28, 0x3d	; 61
     acc:	de b7       	in	r29, 0x3e	; 62
     ace:	9a 83       	std	Y+2, r25	; 0x02
     ad0:	89 83       	std	Y+1, r24	; 0x01

00000ad2 <.Loc.171>:
    if (geel_2_a == 1)
     ad2:	89 81       	ldd	r24, Y+1	; 0x01
     ad4:	9a 81       	ldd	r25, Y+2	; 0x02
     ad6:	81 30       	cpi	r24, 0x01	; 1
     ad8:	91 05       	cpc	r25, r1
     ada:	09 f0       	breq	.+2      	; 0xade <.Loc.172>

00000adc <L0^A>:
     adc:	48 c0       	rjmp	.+144    	; 0xb6e <.L69>

00000ade <.Loc.172>:
    {
        PORTC |= (1<<LED_Geel_1);   // geel 1 aan
     ade:	88 e2       	ldi	r24, 0x28	; 40
     ae0:	90 e0       	ldi	r25, 0x00	; 0
     ae2:	fc 01       	movw	r30, r24
     ae4:	20 81       	ld	r18, Z
     ae6:	88 e2       	ldi	r24, 0x28	; 40
     ae8:	90 e0       	ldi	r25, 0x00	; 0

00000aea <.Loc.173>:
     aea:	22 60       	ori	r18, 0x02	; 2
     aec:	fc 01       	movw	r30, r24
     aee:	20 83       	st	Z, r18

00000af0 <.Loc.174>:
        PORTC |= (1<<LED_Geel_2);   // geel 2 aan
     af0:	88 e2       	ldi	r24, 0x28	; 40
     af2:	90 e0       	ldi	r25, 0x00	; 0
     af4:	fc 01       	movw	r30, r24
     af6:	20 81       	ld	r18, Z
     af8:	88 e2       	ldi	r24, 0x28	; 40
     afa:	90 e0       	ldi	r25, 0x00	; 0

00000afc <.Loc.175>:
     afc:	21 60       	ori	r18, 0x01	; 1
     afe:	fc 01       	movw	r30, r24
     b00:	20 83       	st	Z, r18

00000b02 <.Loc.176>:

        PORTL |= (1<<LED_Rood_1R);  // rood 1R aan
     b02:	8b e0       	ldi	r24, 0x0B	; 11
     b04:	91 e0       	ldi	r25, 0x01	; 1
     b06:	fc 01       	movw	r30, r24
     b08:	20 81       	ld	r18, Z
     b0a:	8b e0       	ldi	r24, 0x0B	; 11
     b0c:	91 e0       	ldi	r25, 0x01	; 1

00000b0e <.Loc.177>:
     b0e:	20 61       	ori	r18, 0x10	; 16
     b10:	fc 01       	movw	r30, r24
     b12:	20 83       	st	Z, r18

00000b14 <.Loc.178>:
        PORTL &= ~(1<<LED_GroenR);  // groen R uit
     b14:	8b e0       	ldi	r24, 0x0B	; 11
     b16:	91 e0       	ldi	r25, 0x01	; 1
     b18:	fc 01       	movw	r30, r24
     b1a:	20 81       	ld	r18, Z

00000b1c <.Loc.179>:
     b1c:	8b e0       	ldi	r24, 0x0B	; 11
     b1e:	91 e0       	ldi	r25, 0x01	; 1

00000b20 <.Loc.180>:
     b20:	27 7f       	andi	r18, 0xF7	; 247
     b22:	fc 01       	movw	r30, r24
     b24:	20 83       	st	Z, r18

00000b26 <.Loc.181>:
        PORTL |= (1<<LED_Rood_2R);  // rood 2R aan
     b26:	8b e0       	ldi	r24, 0x0B	; 11
     b28:	91 e0       	ldi	r25, 0x01	; 1
     b2a:	fc 01       	movw	r30, r24
     b2c:	20 81       	ld	r18, Z
     b2e:	8b e0       	ldi	r24, 0x0B	; 11
     b30:	91 e0       	ldi	r25, 0x01	; 1

00000b32 <.Loc.182>:
     b32:	20 62       	ori	r18, 0x20	; 32
     b34:	fc 01       	movw	r30, r24
     b36:	20 83       	st	Z, r18

00000b38 <.Loc.183>:
        //---------------------//
        PORTL |= (1<<LED_Rood_1L);  // rood 1L aan
     b38:	8b e0       	ldi	r24, 0x0B	; 11
     b3a:	91 e0       	ldi	r25, 0x01	; 1
     b3c:	fc 01       	movw	r30, r24
     b3e:	20 81       	ld	r18, Z
     b40:	8b e0       	ldi	r24, 0x0B	; 11
     b42:	91 e0       	ldi	r25, 0x01	; 1

00000b44 <.Loc.184>:
     b44:	20 64       	ori	r18, 0x40	; 64
     b46:	fc 01       	movw	r30, r24
     b48:	20 83       	st	Z, r18

00000b4a <.Loc.185>:
        PORTL &= ~(1<<LED_GroenL);  // groen L uit
     b4a:	8b e0       	ldi	r24, 0x0B	; 11
     b4c:	91 e0       	ldi	r25, 0x01	; 1
     b4e:	fc 01       	movw	r30, r24
     b50:	20 81       	ld	r18, Z

00000b52 <.Loc.186>:
     b52:	8b e0       	ldi	r24, 0x0B	; 11
     b54:	91 e0       	ldi	r25, 0x01	; 1

00000b56 <.Loc.187>:
     b56:	2f 77       	andi	r18, 0x7F	; 127
     b58:	fc 01       	movw	r30, r24
     b5a:	20 83       	st	Z, r18

00000b5c <.Loc.188>:
        PORTG |= (1<<LED_Rood_2L);  // rood 2L aan
     b5c:	84 e3       	ldi	r24, 0x34	; 52
     b5e:	90 e0       	ldi	r25, 0x00	; 0
     b60:	fc 01       	movw	r30, r24
     b62:	20 81       	ld	r18, Z
     b64:	84 e3       	ldi	r24, 0x34	; 52
     b66:	90 e0       	ldi	r25, 0x00	; 0

00000b68 <.Loc.189>:
     b68:	21 60       	ori	r18, 0x01	; 1
     b6a:	fc 01       	movw	r30, r24
     b6c:	20 83       	st	Z, r18

00000b6e <.L69>:
    }
}
     b6e:	00 00       	nop
     b70:	0f 90       	pop	r0
     b72:	0f 90       	pop	r0
     b74:	df 91       	pop	r29
     b76:	cf 91       	pop	r28
     b78:	08 95       	ret

00000b7a <geel_2_uit>:

void geel_2_uit(int geel_2_u)
{
     b7a:	cf 93       	push	r28
     b7c:	df 93       	push	r29
     b7e:	0f 92       	push	r0
     b80:	0f 92       	push	r0
     b82:	cd b7       	in	r28, 0x3d	; 61
     b84:	de b7       	in	r29, 0x3e	; 62
     b86:	9a 83       	std	Y+2, r25	; 0x02
     b88:	89 83       	std	Y+1, r24	; 0x01

00000b8a <.Loc.192>:
    if(geel_2_u == 1)
     b8a:	89 81       	ldd	r24, Y+1	; 0x01
     b8c:	9a 81       	ldd	r25, Y+2	; 0x02
     b8e:	81 30       	cpi	r24, 0x01	; 1
     b90:	91 05       	cpc	r25, r1
     b92:	91 f4       	brne	.+36     	; 0xbb8 <.L72>

00000b94 <.Loc.193>:
    {
        PORTC &= ~(1<<LED_Geel_1);  // uit
     b94:	88 e2       	ldi	r24, 0x28	; 40
     b96:	90 e0       	ldi	r25, 0x00	; 0
     b98:	fc 01       	movw	r30, r24
     b9a:	20 81       	ld	r18, Z

00000b9c <.Loc.194>:
     b9c:	88 e2       	ldi	r24, 0x28	; 40
     b9e:	90 e0       	ldi	r25, 0x00	; 0

00000ba0 <.Loc.195>:
     ba0:	2d 7f       	andi	r18, 0xFD	; 253
     ba2:	fc 01       	movw	r30, r24
     ba4:	20 83       	st	Z, r18

00000ba6 <.Loc.196>:
        PORTC &= ~(1<<LED_Geel_2);  // uit
     ba6:	88 e2       	ldi	r24, 0x28	; 40
     ba8:	90 e0       	ldi	r25, 0x00	; 0
     baa:	fc 01       	movw	r30, r24
     bac:	20 81       	ld	r18, Z

00000bae <.Loc.197>:
     bae:	88 e2       	ldi	r24, 0x28	; 40
     bb0:	90 e0       	ldi	r25, 0x00	; 0

00000bb2 <.Loc.198>:
     bb2:	2e 7f       	andi	r18, 0xFE	; 254
     bb4:	fc 01       	movw	r30, r24
     bb6:	20 83       	st	Z, r18

00000bb8 <.L72>:
    }
}
     bb8:	00 00       	nop
     bba:	0f 90       	pop	r0
     bbc:	0f 90       	pop	r0
     bbe:	df 91       	pop	r29
     bc0:	cf 91       	pop	r28
     bc2:	08 95       	ret

00000bc4 <alarm_aan>:

void alarm_aan(int alarm_a)
{
     bc4:	cf 93       	push	r28
     bc6:	df 93       	push	r29
     bc8:	0f 92       	push	r0
     bca:	0f 92       	push	r0
     bcc:	cd b7       	in	r28, 0x3d	; 61
     bce:	de b7       	in	r29, 0x3e	; 62
     bd0:	9a 83       	std	Y+2, r25	; 0x02
     bd2:	89 83       	std	Y+1, r24	; 0x01

00000bd4 <.Loc.201>:
    if(alarm_a == 1)
     bd4:	89 81       	ldd	r24, Y+1	; 0x01
     bd6:	9a 81       	ldd	r25, Y+2	; 0x02
     bd8:	81 30       	cpi	r24, 0x01	; 1
     bda:	91 05       	cpc	r25, r1
     bdc:	49 f4       	brne	.+18     	; 0xbf0 <.L75>

00000bde <.Loc.202>:
    {
        PORTE &= ~(1<<alarm_brug);  // aan
     bde:	8e e2       	ldi	r24, 0x2E	; 46
     be0:	90 e0       	ldi	r25, 0x00	; 0
     be2:	fc 01       	movw	r30, r24
     be4:	20 81       	ld	r18, Z

00000be6 <.Loc.203>:
     be6:	8e e2       	ldi	r24, 0x2E	; 46
     be8:	90 e0       	ldi	r25, 0x00	; 0

00000bea <.Loc.204>:
     bea:	2f 7d       	andi	r18, 0xDF	; 223
     bec:	fc 01       	movw	r30, r24
     bee:	20 83       	st	Z, r18

00000bf0 <.L75>:
    }
}
     bf0:	00 00       	nop
     bf2:	0f 90       	pop	r0
     bf4:	0f 90       	pop	r0
     bf6:	df 91       	pop	r29
     bf8:	cf 91       	pop	r28
     bfa:	08 95       	ret

00000bfc <alarm_uit>:

void alarm_uit(int alarm_u)
{
     bfc:	cf 93       	push	r28
     bfe:	df 93       	push	r29
     c00:	0f 92       	push	r0
     c02:	0f 92       	push	r0
     c04:	cd b7       	in	r28, 0x3d	; 61
     c06:	de b7       	in	r29, 0x3e	; 62
     c08:	9a 83       	std	Y+2, r25	; 0x02
     c0a:	89 83       	std	Y+1, r24	; 0x01

00000c0c <.Loc.207>:
    if(alarm_u == 1)
     c0c:	89 81       	ldd	r24, Y+1	; 0x01
     c0e:	9a 81       	ldd	r25, Y+2	; 0x02
     c10:	81 30       	cpi	r24, 0x01	; 1
     c12:	91 05       	cpc	r25, r1
     c14:	49 f4       	brne	.+18     	; 0xc28 <.L78>

00000c16 <.Loc.208>:
    {
        PORTE |= (1<<alarm_brug);   // uit
     c16:	8e e2       	ldi	r24, 0x2E	; 46
     c18:	90 e0       	ldi	r25, 0x00	; 0
     c1a:	fc 01       	movw	r30, r24
     c1c:	20 81       	ld	r18, Z
     c1e:	8e e2       	ldi	r24, 0x2E	; 46
     c20:	90 e0       	ldi	r25, 0x00	; 0

00000c22 <.Loc.209>:
     c22:	20 62       	ori	r18, 0x20	; 32
     c24:	fc 01       	movw	r30, r24
     c26:	20 83       	st	Z, r18

00000c28 <.L78>:
    }
}
     c28:	00 00       	nop
     c2a:	0f 90       	pop	r0
     c2c:	0f 90       	pop	r0
     c2e:	df 91       	pop	r29
     c30:	cf 91       	pop	r28
     c32:	08 95       	ret

00000c34 <main>:

int main(void)
{
     c34:	0f 93       	push	r16
     c36:	1f 93       	push	r17
     c38:	cf 93       	push	r28
     c3a:	df 93       	push	r29
     c3c:	cd b7       	in	r28, 0x3d	; 61
     c3e:	de b7       	in	r29, 0x3e	; 62
     c40:	ca 5b       	subi	r28, 0xBA	; 186
     c42:	d1 09       	sbc	r29, r1
     c44:	0f b6       	in	r0, 0x3f	; 63
     c46:	f8 94       	cli
     c48:	de bf       	out	0x3e, r29	; 62
     c4a:	0f be       	out	0x3f, r0	; 63
     c4c:	cd bf       	out	0x3d, r28	; 61

00000c4e <.Loc.212>:
	//----Configureer pins als output----//
    init();
     c4e:	0e 94 d8 01 	call	0x3b0	; 0x3b0 <init>

00000c52 <.Loc.213>:
    DDRB |= (1<<knipper_rood1);
     c52:	84 e2       	ldi	r24, 0x24	; 36
     c54:	90 e0       	ldi	r25, 0x00	; 0
     c56:	dc 01       	movw	r26, r24
     c58:	2c 91       	ld	r18, X
     c5a:	84 e2       	ldi	r24, 0x24	; 36
     c5c:	90 e0       	ldi	r25, 0x00	; 0

00000c5e <.Loc.214>:
     c5e:	20 68       	ori	r18, 0x80	; 128
     c60:	fc 01       	movw	r30, r24
     c62:	20 83       	st	Z, r18

00000c64 <.Loc.215>:
    DDRB |= (1<<knipper_rood2);
     c64:	84 e2       	ldi	r24, 0x24	; 36
     c66:	90 e0       	ldi	r25, 0x00	; 0
     c68:	dc 01       	movw	r26, r24
     c6a:	2c 91       	ld	r18, X
     c6c:	84 e2       	ldi	r24, 0x24	; 36
     c6e:	90 e0       	ldi	r25, 0x00	; 0

00000c70 <.Loc.216>:
     c70:	20 64       	ori	r18, 0x40	; 64
     c72:	fc 01       	movw	r30, r24
     c74:	20 83       	st	Z, r18

00000c76 <.Loc.217>:
    DDRL |= (1<<LED_Rood_1R);
     c76:	8a e0       	ldi	r24, 0x0A	; 10
     c78:	91 e0       	ldi	r25, 0x01	; 1
     c7a:	dc 01       	movw	r26, r24
     c7c:	2c 91       	ld	r18, X
     c7e:	8a e0       	ldi	r24, 0x0A	; 10
     c80:	91 e0       	ldi	r25, 0x01	; 1

00000c82 <.Loc.218>:
     c82:	20 61       	ori	r18, 0x10	; 16
     c84:	fc 01       	movw	r30, r24
     c86:	20 83       	st	Z, r18

00000c88 <.Loc.219>:
    DDRL |= (1<<LED_Rood_2R);
     c88:	8a e0       	ldi	r24, 0x0A	; 10
     c8a:	91 e0       	ldi	r25, 0x01	; 1
     c8c:	dc 01       	movw	r26, r24
     c8e:	2c 91       	ld	r18, X
     c90:	8a e0       	ldi	r24, 0x0A	; 10
     c92:	91 e0       	ldi	r25, 0x01	; 1

00000c94 <.Loc.220>:
     c94:	20 62       	ori	r18, 0x20	; 32
     c96:	fc 01       	movw	r30, r24
     c98:	20 83       	st	Z, r18

00000c9a <.Loc.221>:
    DDRL |= (1<<LED_GroenR);
     c9a:	8a e0       	ldi	r24, 0x0A	; 10
     c9c:	91 e0       	ldi	r25, 0x01	; 1
     c9e:	dc 01       	movw	r26, r24
     ca0:	2c 91       	ld	r18, X
     ca2:	8a e0       	ldi	r24, 0x0A	; 10
     ca4:	91 e0       	ldi	r25, 0x01	; 1

00000ca6 <.Loc.222>:
     ca6:	28 60       	ori	r18, 0x08	; 8
     ca8:	fc 01       	movw	r30, r24
     caa:	20 83       	st	Z, r18

00000cac <.Loc.223>:
    DDRL |= (1<<LED_Rood_1L);
     cac:	8a e0       	ldi	r24, 0x0A	; 10
     cae:	91 e0       	ldi	r25, 0x01	; 1
     cb0:	dc 01       	movw	r26, r24
     cb2:	2c 91       	ld	r18, X
     cb4:	8a e0       	ldi	r24, 0x0A	; 10
     cb6:	91 e0       	ldi	r25, 0x01	; 1

00000cb8 <.Loc.224>:
     cb8:	20 64       	ori	r18, 0x40	; 64
     cba:	fc 01       	movw	r30, r24
     cbc:	20 83       	st	Z, r18

00000cbe <.Loc.225>:
    DDRG |= (1<<LED_Rood_2L);
     cbe:	83 e3       	ldi	r24, 0x33	; 51
     cc0:	90 e0       	ldi	r25, 0x00	; 0
     cc2:	dc 01       	movw	r26, r24
     cc4:	2c 91       	ld	r18, X
     cc6:	83 e3       	ldi	r24, 0x33	; 51
     cc8:	90 e0       	ldi	r25, 0x00	; 0

00000cca <.Loc.226>:
     cca:	21 60       	ori	r18, 0x01	; 1
     ccc:	fc 01       	movw	r30, r24
     cce:	20 83       	st	Z, r18

00000cd0 <.Loc.227>:
    DDRL |= (1<<LED_GroenL);
     cd0:	8a e0       	ldi	r24, 0x0A	; 10
     cd2:	91 e0       	ldi	r25, 0x01	; 1
     cd4:	dc 01       	movw	r26, r24
     cd6:	2c 91       	ld	r18, X
     cd8:	8a e0       	ldi	r24, 0x0A	; 10
     cda:	91 e0       	ldi	r25, 0x01	; 1

00000cdc <.Loc.228>:
     cdc:	20 68       	ori	r18, 0x80	; 128
     cde:	fc 01       	movw	r30, r24
     ce0:	20 83       	st	Z, r18

00000ce2 <.Loc.229>:
    DDRC |= (1<<LED_Geel_1);
     ce2:	87 e2       	ldi	r24, 0x27	; 39
     ce4:	90 e0       	ldi	r25, 0x00	; 0
     ce6:	dc 01       	movw	r26, r24
     ce8:	2c 91       	ld	r18, X
     cea:	87 e2       	ldi	r24, 0x27	; 39
     cec:	90 e0       	ldi	r25, 0x00	; 0

00000cee <.Loc.230>:
     cee:	22 60       	ori	r18, 0x02	; 2
     cf0:	fc 01       	movw	r30, r24
     cf2:	20 83       	st	Z, r18

00000cf4 <.Loc.231>:
    DDRC |= (1<<LED_Geel_2);
     cf4:	87 e2       	ldi	r24, 0x27	; 39
     cf6:	90 e0       	ldi	r25, 0x00	; 0
     cf8:	dc 01       	movw	r26, r24
     cfa:	2c 91       	ld	r18, X
     cfc:	87 e2       	ldi	r24, 0x27	; 39
     cfe:	90 e0       	ldi	r25, 0x00	; 0

00000d00 <.Loc.232>:
     d00:	21 60       	ori	r18, 0x01	; 1
     d02:	fc 01       	movw	r30, r24
     d04:	20 83       	st	Z, r18

00000d06 <.Loc.233>:
    DDRE |= (1<<alarm_brug);
     d06:	8d e2       	ldi	r24, 0x2D	; 45
     d08:	90 e0       	ldi	r25, 0x00	; 0
     d0a:	dc 01       	movw	r26, r24
     d0c:	2c 91       	ld	r18, X
     d0e:	8d e2       	ldi	r24, 0x2D	; 45
     d10:	90 e0       	ldi	r25, 0x00	; 0

00000d12 <.Loc.234>:
     d12:	20 62       	ori	r18, 0x20	; 32
     d14:	fc 01       	movw	r30, r24
     d16:	20 83       	st	Z, r18

00000d18 <.Loc.235>:
    DDR_RPWM |= (1<<PIN_RPWM);
     d18:	81 e0       	ldi	r24, 0x01	; 1
     d1a:	91 e0       	ldi	r25, 0x01	; 1
     d1c:	dc 01       	movw	r26, r24
     d1e:	2c 91       	ld	r18, X
     d20:	81 e0       	ldi	r24, 0x01	; 1
     d22:	91 e0       	ldi	r25, 0x01	; 1

00000d24 <.Loc.236>:
     d24:	20 64       	ori	r18, 0x40	; 64
     d26:	fc 01       	movw	r30, r24
     d28:	20 83       	st	Z, r18

00000d2a <.Loc.237>:
    DDR_LPWM |= (1<<PIN_LPWM);
     d2a:	80 e3       	ldi	r24, 0x30	; 48
     d2c:	90 e0       	ldi	r25, 0x00	; 0
     d2e:	dc 01       	movw	r26, r24
     d30:	2c 91       	ld	r18, X
     d32:	80 e3       	ldi	r24, 0x30	; 48
     d34:	90 e0       	ldi	r25, 0x00	; 0

00000d36 <.Loc.238>:
     d36:	20 62       	ori	r18, 0x20	; 32
     d38:	fc 01       	movw	r30, r24
     d3a:	20 83       	st	Z, r18

00000d3c <.Loc.239>:

    PORTB |= (1<<knipper_rood1);
     d3c:	85 e2       	ldi	r24, 0x25	; 37
     d3e:	90 e0       	ldi	r25, 0x00	; 0
     d40:	dc 01       	movw	r26, r24
     d42:	2c 91       	ld	r18, X
     d44:	85 e2       	ldi	r24, 0x25	; 37
     d46:	90 e0       	ldi	r25, 0x00	; 0

00000d48 <.Loc.240>:
     d48:	20 68       	ori	r18, 0x80	; 128
     d4a:	fc 01       	movw	r30, r24
     d4c:	20 83       	st	Z, r18

00000d4e <.Loc.241>:
    PORTB |= (1<<knipper_rood2);
     d4e:	85 e2       	ldi	r24, 0x25	; 37
     d50:	90 e0       	ldi	r25, 0x00	; 0
     d52:	dc 01       	movw	r26, r24
     d54:	2c 91       	ld	r18, X
     d56:	85 e2       	ldi	r24, 0x25	; 37
     d58:	90 e0       	ldi	r25, 0x00	; 0

00000d5a <.Loc.242>:
     d5a:	20 64       	ori	r18, 0x40	; 64
     d5c:	fc 01       	movw	r30, r24
     d5e:	20 83       	st	Z, r18

00000d60 <.Loc.243>:
    PORTL |= (1<<LED_Rood_1R);
     d60:	8b e0       	ldi	r24, 0x0B	; 11
     d62:	91 e0       	ldi	r25, 0x01	; 1
     d64:	dc 01       	movw	r26, r24
     d66:	2c 91       	ld	r18, X
     d68:	8b e0       	ldi	r24, 0x0B	; 11
     d6a:	91 e0       	ldi	r25, 0x01	; 1

00000d6c <.Loc.244>:
     d6c:	20 61       	ori	r18, 0x10	; 16
     d6e:	fc 01       	movw	r30, r24
     d70:	20 83       	st	Z, r18

00000d72 <.Loc.245>:
    PORTL |= (1<<LED_Rood_2R);
     d72:	8b e0       	ldi	r24, 0x0B	; 11
     d74:	91 e0       	ldi	r25, 0x01	; 1
     d76:	dc 01       	movw	r26, r24
     d78:	2c 91       	ld	r18, X
     d7a:	8b e0       	ldi	r24, 0x0B	; 11
     d7c:	91 e0       	ldi	r25, 0x01	; 1

00000d7e <.Loc.246>:
     d7e:	20 62       	ori	r18, 0x20	; 32
     d80:	fc 01       	movw	r30, r24
     d82:	20 83       	st	Z, r18

00000d84 <.Loc.247>:
    PORTL |= (1<<LED_GroenR);
     d84:	8b e0       	ldi	r24, 0x0B	; 11
     d86:	91 e0       	ldi	r25, 0x01	; 1
     d88:	dc 01       	movw	r26, r24
     d8a:	2c 91       	ld	r18, X
     d8c:	8b e0       	ldi	r24, 0x0B	; 11
     d8e:	91 e0       	ldi	r25, 0x01	; 1

00000d90 <.Loc.248>:
     d90:	28 60       	ori	r18, 0x08	; 8
     d92:	fc 01       	movw	r30, r24
     d94:	20 83       	st	Z, r18

00000d96 <.Loc.249>:
    PORTL |= (1<<LED_Rood_1L);
     d96:	8b e0       	ldi	r24, 0x0B	; 11
     d98:	91 e0       	ldi	r25, 0x01	; 1
     d9a:	dc 01       	movw	r26, r24
     d9c:	2c 91       	ld	r18, X
     d9e:	8b e0       	ldi	r24, 0x0B	; 11
     da0:	91 e0       	ldi	r25, 0x01	; 1

00000da2 <.Loc.250>:
     da2:	20 64       	ori	r18, 0x40	; 64
     da4:	fc 01       	movw	r30, r24
     da6:	20 83       	st	Z, r18

00000da8 <.Loc.251>:
    PORTG |= (1<<LED_Rood_2L);
     da8:	84 e3       	ldi	r24, 0x34	; 52
     daa:	90 e0       	ldi	r25, 0x00	; 0
     dac:	dc 01       	movw	r26, r24
     dae:	2c 91       	ld	r18, X
     db0:	84 e3       	ldi	r24, 0x34	; 52
     db2:	90 e0       	ldi	r25, 0x00	; 0

00000db4 <.Loc.252>:
     db4:	21 60       	ori	r18, 0x01	; 1
     db6:	fc 01       	movw	r30, r24
     db8:	20 83       	st	Z, r18

00000dba <.Loc.253>:
    PORTL |= (1<<LED_GroenL);
     dba:	8b e0       	ldi	r24, 0x0B	; 11
     dbc:	91 e0       	ldi	r25, 0x01	; 1
     dbe:	dc 01       	movw	r26, r24
     dc0:	2c 91       	ld	r18, X
     dc2:	8b e0       	ldi	r24, 0x0B	; 11
     dc4:	91 e0       	ldi	r25, 0x01	; 1

00000dc6 <.Loc.254>:
     dc6:	20 68       	ori	r18, 0x80	; 128
     dc8:	fc 01       	movw	r30, r24
     dca:	20 83       	st	Z, r18

00000dcc <.Loc.255>:
    PORTC |= (1<<LED_Geel_1);
     dcc:	88 e2       	ldi	r24, 0x28	; 40
     dce:	90 e0       	ldi	r25, 0x00	; 0
     dd0:	dc 01       	movw	r26, r24
     dd2:	2c 91       	ld	r18, X
     dd4:	88 e2       	ldi	r24, 0x28	; 40
     dd6:	90 e0       	ldi	r25, 0x00	; 0

00000dd8 <.Loc.256>:
     dd8:	22 60       	ori	r18, 0x02	; 2
     dda:	fc 01       	movw	r30, r24
     ddc:	20 83       	st	Z, r18

00000dde <.Loc.257>:
    PORTC |= (1<<LED_Geel_2);
     dde:	88 e2       	ldi	r24, 0x28	; 40
     de0:	90 e0       	ldi	r25, 0x00	; 0
     de2:	dc 01       	movw	r26, r24
     de4:	2c 91       	ld	r18, X
     de6:	88 e2       	ldi	r24, 0x28	; 40
     de8:	90 e0       	ldi	r25, 0x00	; 0

00000dea <.Loc.258>:
     dea:	21 60       	ori	r18, 0x01	; 1
     dec:	fc 01       	movw	r30, r24
     dee:	20 83       	st	Z, r18

00000df0 <.Loc.259>:

    PORTE |= (1<<alarm_brug);
     df0:	8e e2       	ldi	r24, 0x2E	; 46
     df2:	90 e0       	ldi	r25, 0x00	; 0
     df4:	dc 01       	movw	r26, r24
     df6:	2c 91       	ld	r18, X
     df8:	8e e2       	ldi	r24, 0x2E	; 46
     dfa:	90 e0       	ldi	r25, 0x00	; 0

00000dfc <.Loc.260>:
     dfc:	20 62       	ori	r18, 0x20	; 32
     dfe:	fc 01       	movw	r30, r24
     e00:	20 83       	st	Z, r18

00000e02 <.Loc.261>:
    PORT_LPWM |= (1<<PIN_LPWM);
     e02:	81 e3       	ldi	r24, 0x31	; 49
     e04:	90 e0       	ldi	r25, 0x00	; 0
     e06:	dc 01       	movw	r26, r24
     e08:	2c 91       	ld	r18, X
     e0a:	81 e3       	ldi	r24, 0x31	; 49
     e0c:	90 e0       	ldi	r25, 0x00	; 0

00000e0e <.Loc.262>:
     e0e:	20 62       	ori	r18, 0x20	; 32
     e10:	fc 01       	movw	r30, r24
     e12:	20 83       	st	Z, r18

00000e14 <.Loc.263>:
    PORT_RPWM |= (1<<PIN_RPWM);
     e14:	82 e0       	ldi	r24, 0x02	; 2
     e16:	91 e0       	ldi	r25, 0x01	; 1
     e18:	dc 01       	movw	r26, r24
     e1a:	2c 91       	ld	r18, X
     e1c:	82 e0       	ldi	r24, 0x02	; 2
     e1e:	91 e0       	ldi	r25, 0x01	; 1

00000e20 <.Loc.264>:
     e20:	20 64       	ori	r18, 0x40	; 64
     e22:	fc 01       	movw	r30, r24
     e24:	20 83       	st	Z, r18

00000e26 <.Loc.265>:
    DDRF &= ~(1<<knop_dicht);
     e26:	80 e3       	ldi	r24, 0x30	; 48
     e28:	90 e0       	ldi	r25, 0x00	; 0
     e2a:	dc 01       	movw	r26, r24
     e2c:	2c 91       	ld	r18, X

00000e2e <.Loc.266>:
     e2e:	80 e3       	ldi	r24, 0x30	; 48
     e30:	90 e0       	ldi	r25, 0x00	; 0

00000e32 <.Loc.267>:
     e32:	2b 7f       	andi	r18, 0xFB	; 251
     e34:	fc 01       	movw	r30, r24
     e36:	20 83       	st	Z, r18

00000e38 <.Loc.268>:
    DDRF &= ~(1<<knop_open);
     e38:	80 e3       	ldi	r24, 0x30	; 48
     e3a:	90 e0       	ldi	r25, 0x00	; 0
     e3c:	dc 01       	movw	r26, r24
     e3e:	2c 91       	ld	r18, X

00000e40 <.Loc.269>:
     e40:	80 e3       	ldi	r24, 0x30	; 48
     e42:	90 e0       	ldi	r25, 0x00	; 0

00000e44 <.Loc.270>:
     e44:	2d 7f       	andi	r18, 0xFD	; 253
     e46:	fc 01       	movw	r30, r24
     e48:	20 83       	st	Z, r18

00000e4a <.Loc.271>:
    DDRF &= ~(1<<knop_geel);
     e4a:	80 e3       	ldi	r24, 0x30	; 48
     e4c:	90 e0       	ldi	r25, 0x00	; 0
     e4e:	dc 01       	movw	r26, r24
     e50:	2c 91       	ld	r18, X

00000e52 <.Loc.272>:
     e52:	80 e3       	ldi	r24, 0x30	; 48
     e54:	90 e0       	ldi	r25, 0x00	; 0

00000e56 <.Loc.273>:
     e56:	27 7f       	andi	r18, 0xF7	; 247
     e58:	fc 01       	movw	r30, r24
     e5a:	20 83       	st	Z, r18

00000e5c <.Loc.274>:
    DDRF &= ~(1<<knop_geel_2);
     e5c:	80 e3       	ldi	r24, 0x30	; 48
     e5e:	90 e0       	ldi	r25, 0x00	; 0
     e60:	dc 01       	movw	r26, r24
     e62:	2c 91       	ld	r18, X

00000e64 <.Loc.275>:
     e64:	80 e3       	ldi	r24, 0x30	; 48
     e66:	90 e0       	ldi	r25, 0x00	; 0

00000e68 <.Loc.276>:
     e68:	2f 7e       	andi	r18, 0xEF	; 239
     e6a:	fc 01       	movw	r30, r24
     e6c:	20 83       	st	Z, r18

00000e6e <.Loc.277>:
    DDRK &= ~(1<<knop_stop_o);
     e6e:	87 e0       	ldi	r24, 0x07	; 7
     e70:	91 e0       	ldi	r25, 0x01	; 1
     e72:	dc 01       	movw	r26, r24
     e74:	2c 91       	ld	r18, X

00000e76 <.Loc.278>:
     e76:	87 e0       	ldi	r24, 0x07	; 7
     e78:	91 e0       	ldi	r25, 0x01	; 1

00000e7a <.Loc.279>:
     e7a:	2e 7f       	andi	r18, 0xFE	; 254
     e7c:	fc 01       	movw	r30, r24
     e7e:	20 83       	st	Z, r18

00000e80 <.Loc.280>:
    DDRK &= ~(1<<knop_stop_d);
     e80:	87 e0       	ldi	r24, 0x07	; 7
     e82:	91 e0       	ldi	r25, 0x01	; 1
     e84:	dc 01       	movw	r26, r24
     e86:	2c 91       	ld	r18, X

00000e88 <.Loc.281>:
     e88:	87 e0       	ldi	r24, 0x07	; 7
     e8a:	91 e0       	ldi	r25, 0x01	; 1

00000e8c <.Loc.282>:
     e8c:	2d 7f       	andi	r18, 0xFD	; 253
     e8e:	fc 01       	movw	r30, r24
     e90:	20 83       	st	Z, r18

00000e92 <.L149>:

    //----Main while loop----//
    while(1)
    {
        //----Declaratie van variabelen----//
        int bediening_aan = 1;
     e92:	81 e0       	ldi	r24, 0x01	; 1
     e94:	90 e0       	ldi	r25, 0x00	; 0
     e96:	9e 87       	std	Y+14, r25	; 0x0e
     e98:	8d 87       	std	Y+13, r24	; 0x0d

00000e9a <.Loc.284>:
        int knop_brugOpen = 0;
     e9a:	1a 82       	std	Y+2, r1	; 0x02
     e9c:	19 82       	std	Y+1, r1	; 0x01

00000e9e <.Loc.285>:
        int knop_brugDicht = 0;
     e9e:	1c 82       	std	Y+4, r1	; 0x04
     ea0:	1b 82       	std	Y+3, r1	; 0x03

00000ea2 <.Loc.286>:
        int knop_geel_LED = 0;
     ea2:	1e 82       	std	Y+6, r1	; 0x06
     ea4:	1d 82       	std	Y+5, r1	; 0x05

00000ea6 <.Loc.287>:
        int knop_stop_open = 0;
     ea6:	18 86       	std	Y+8, r1	; 0x08
     ea8:	1f 82       	std	Y+7, r1	; 0x07

00000eaa <.Loc.288>:
        int knop_stop_dicht = 0;
     eaa:	18 8a       	std	Y+16, r1	; 0x10
     eac:	1f 86       	std	Y+15, r1	; 0x0f

00000eae <.Loc.289>:
        int situatie = 1;
     eae:	81 e0       	ldi	r24, 0x01	; 1
     eb0:	90 e0       	ldi	r25, 0x00	; 0
     eb2:	9a 87       	std	Y+10, r25	; 0x0a
     eb4:	89 87       	std	Y+9, r24	; 0x09

00000eb6 <.Loc.290>:

        slagbomen_open(1);
     eb6:	81 e0       	ldi	r24, 0x01	; 1
     eb8:	90 e0       	ldi	r25, 0x00	; 0
     eba:	0e 94 9e 03 	call	0x73c	; 0x73c <slagbomen_open>

00000ebe <.Loc.291>:
        h_bridge_set_percentage(0);
     ebe:	80 e0       	ldi	r24, 0x00	; 0
     ec0:	0e 94 8e 01 	call	0x31c	; 0x31c <h_bridge_set_percentage>

00000ec4 <.Loc.292>:

        while(bediening_aan != 0)
     ec4:	83 c5       	rjmp	.+2822   	; 0x19cc <.L80>

00000ec6 <.L148>:
        {
            //----Configureer knoppen----//
            if (!(PINF & (1<<knop_open)))
     ec6:	8f e2       	ldi	r24, 0x2F	; 47
     ec8:	90 e0       	ldi	r25, 0x00	; 0
     eca:	dc 01       	movw	r26, r24
     ecc:	8c 91       	ld	r24, X

00000ece <.Loc.294>:
     ece:	88 2f       	mov	r24, r24
     ed0:	90 e0       	ldi	r25, 0x00	; 0
     ed2:	82 70       	andi	r24, 0x02	; 2
     ed4:	99 27       	eor	r25, r25

00000ed6 <.Loc.295>:
     ed6:	00 97       	sbiw	r24, 0x00	; 0
     ed8:	09 f0       	breq	.+2      	; 0xedc <L0^A+0x2>

00000eda <L0^A>:
     eda:	a8 c0       	rjmp	.+336    	; 0x102c <.L81>
     edc:	80 e0       	ldi	r24, 0x00	; 0
     ede:	90 e0       	ldi	r25, 0x00	; 0
     ee0:	a0 e2       	ldi	r26, 0x20	; 32
     ee2:	b1 e4       	ldi	r27, 0x41	; 65
     ee4:	89 8b       	std	Y+17, r24	; 0x11
     ee6:	9a 8b       	std	Y+18, r25	; 0x12
     ee8:	ab 8b       	std	Y+19, r26	; 0x13
     eea:	bc 8b       	std	Y+20, r27	; 0x14

00000eec <.LBB63>:
	__tmp = ((F_CPU) / 4e3) * __ms;
     eec:	20 e0       	ldi	r18, 0x00	; 0
     eee:	30 e0       	ldi	r19, 0x00	; 0
     ef0:	4a e7       	ldi	r20, 0x7A	; 122
     ef2:	55 e4       	ldi	r21, 0x45	; 69
     ef4:	69 89       	ldd	r22, Y+17	; 0x11
     ef6:	7a 89       	ldd	r23, Y+18	; 0x12
     ef8:	8b 89       	ldd	r24, Y+19	; 0x13
     efa:	9c 89       	ldd	r25, Y+20	; 0x14
     efc:	0e 94 14 10 	call	0x2028	; 0x2028 <__mulsf3>
     f00:	af 96       	adiw	r28, 0x2f	; 47
     f02:	6c af       	std	Y+60, r22	; 0x3c
     f04:	7d af       	std	Y+61, r23	; 0x3d
     f06:	8e af       	std	Y+62, r24	; 0x3e
     f08:	9f af       	std	Y+63, r25	; 0x3f
     f0a:	af 97       	sbiw	r28, 0x2f	; 47
     f0c:	af 96       	adiw	r28, 0x2f	; 47
     f0e:	8c ad       	ldd	r24, Y+60	; 0x3c
     f10:	9d ad       	ldd	r25, Y+61	; 0x3d
     f12:	ae ad       	ldd	r26, Y+62	; 0x3e
     f14:	bf ad       	ldd	r27, Y+63	; 0x3f
     f16:	af 97       	sbiw	r28, 0x2f	; 47
     f18:	8d 8b       	std	Y+21, r24	; 0x15
     f1a:	9e 8b       	std	Y+22, r25	; 0x16
     f1c:	af 8b       	std	Y+23, r26	; 0x17
     f1e:	b8 8f       	std	Y+24, r27	; 0x18

00000f20 <.Loc.297>:
	if (__tmp < 1.0)
     f20:	20 e0       	ldi	r18, 0x00	; 0
     f22:	30 e0       	ldi	r19, 0x00	; 0
     f24:	40 e8       	ldi	r20, 0x80	; 128
     f26:	5f e3       	ldi	r21, 0x3F	; 63
     f28:	6d 89       	ldd	r22, Y+21	; 0x15
     f2a:	7e 89       	ldd	r23, Y+22	; 0x16
     f2c:	8f 89       	ldd	r24, Y+23	; 0x17
     f2e:	98 8d       	ldd	r25, Y+24	; 0x18
     f30:	0e 94 29 0f 	call	0x1e52	; 0x1e52 <__cmpsf2>
     f34:	88 23       	and	r24, r24
     f36:	2c f4       	brge	.+10     	; 0xf42 <.L160>

00000f38 <.Loc.298>:
		__ticks = 1;
     f38:	81 e0       	ldi	r24, 0x01	; 1
     f3a:	90 e0       	ldi	r25, 0x00	; 0
     f3c:	9a 8f       	std	Y+26, r25	; 0x1a
     f3e:	89 8f       	std	Y+25, r24	; 0x19
     f40:	66 c0       	rjmp	.+204    	; 0x100e <.L84>

00000f42 <.L160>:
	else if (__tmp > 65535)
     f42:	20 e0       	ldi	r18, 0x00	; 0
     f44:	3f ef       	ldi	r19, 0xFF	; 255
     f46:	4f e7       	ldi	r20, 0x7F	; 127
     f48:	57 e4       	ldi	r21, 0x47	; 71
     f4a:	6d 89       	ldd	r22, Y+21	; 0x15
     f4c:	7e 89       	ldd	r23, Y+22	; 0x16
     f4e:	8f 89       	ldd	r24, Y+23	; 0x17
     f50:	98 8d       	ldd	r25, Y+24	; 0x18
     f52:	0e 94 0f 10 	call	0x201e	; 0x201e <__gesf2>
     f56:	88 23       	and	r24, r24
     f58:	09 f0       	breq	.+2      	; 0xf5c <L0^A>

00000f5a <L0^A>:
     f5a:	0c f4       	brge	.+2      	; 0xf5e <.Loc.300>

00000f5c <L0^A>:
     f5c:	46 c0       	rjmp	.+140    	; 0xfea <.L161>

00000f5e <.Loc.300>:
		__ticks = (uint16_t) (__ms * 10.0);
     f5e:	20 e0       	ldi	r18, 0x00	; 0
     f60:	30 e0       	ldi	r19, 0x00	; 0
     f62:	40 e2       	ldi	r20, 0x20	; 32
     f64:	51 e4       	ldi	r21, 0x41	; 65
     f66:	69 89       	ldd	r22, Y+17	; 0x11
     f68:	7a 89       	ldd	r23, Y+18	; 0x12
     f6a:	8b 89       	ldd	r24, Y+19	; 0x13
     f6c:	9c 89       	ldd	r25, Y+20	; 0x14
     f6e:	0e 94 14 10 	call	0x2028	; 0x2028 <__mulsf3>
     f72:	e3 96       	adiw	r28, 0x33	; 51
     f74:	6c af       	std	Y+60, r22	; 0x3c
     f76:	7d af       	std	Y+61, r23	; 0x3d
     f78:	8e af       	std	Y+62, r24	; 0x3e
     f7a:	9f af       	std	Y+63, r25	; 0x3f
     f7c:	e3 97       	sbiw	r28, 0x33	; 51
     f7e:	e3 96       	adiw	r28, 0x33	; 51
     f80:	8c ad       	ldd	r24, Y+60	; 0x3c
     f82:	9d ad       	ldd	r25, Y+61	; 0x3d
     f84:	ae ad       	ldd	r26, Y+62	; 0x3e
     f86:	bf ad       	ldd	r27, Y+63	; 0x3f
     f88:	e3 97       	sbiw	r28, 0x33	; 51
     f8a:	6b 96       	adiw	r28, 0x1b	; 27
     f8c:	8c af       	std	Y+60, r24	; 0x3c
     f8e:	9d af       	std	Y+61, r25	; 0x3d
     f90:	ae af       	std	Y+62, r26	; 0x3e
     f92:	bf af       	std	Y+63, r27	; 0x3f
     f94:	6b 97       	sbiw	r28, 0x1b	; 27

00000f96 <.Loc.301>:
     f96:	6b 96       	adiw	r28, 0x1b	; 27
     f98:	6c ad       	ldd	r22, Y+60	; 0x3c
     f9a:	7d ad       	ldd	r23, Y+61	; 0x3d
     f9c:	8e ad       	ldd	r24, Y+62	; 0x3e
     f9e:	9f ad       	ldd	r25, Y+63	; 0x3f
     fa0:	6b 97       	sbiw	r28, 0x1b	; 27
     fa2:	0e 94 2e 0f 	call	0x1e5c	; 0x1e5c <__fixunssfsi>
     fa6:	e7 96       	adiw	r28, 0x37	; 55
     fa8:	6c af       	std	Y+60, r22	; 0x3c
     faa:	7d af       	std	Y+61, r23	; 0x3d
     fac:	8e af       	std	Y+62, r24	; 0x3e
     fae:	9f af       	std	Y+63, r25	; 0x3f
     fb0:	e7 97       	sbiw	r28, 0x37	; 55
     fb2:	e5 96       	adiw	r28, 0x35	; 53
     fb4:	ae ad       	ldd	r26, Y+62	; 0x3e
     fb6:	bf ad       	ldd	r27, Y+63	; 0x3f
     fb8:	e5 97       	sbiw	r28, 0x35	; 53
     fba:	ba 8f       	std	Y+26, r27	; 0x1a
     fbc:	a9 8f       	std	Y+25, r26	; 0x19

00000fbe <.Loc.302>:
		while(__ticks)
     fbe:	10 c0       	rjmp	.+32     	; 0xfe0 <.L87>

00000fc0 <.L88>:
     fc0:	80 e9       	ldi	r24, 0x90	; 144
     fc2:	91 e0       	ldi	r25, 0x01	; 1
     fc4:	9c 8f       	std	Y+28, r25	; 0x1c
     fc6:	8b 8f       	std	Y+27, r24	; 0x1b

00000fc8 <.LBB65>:
     fc8:	8b 8d       	ldd	r24, Y+27	; 0x1b
     fca:	9c 8d       	ldd	r25, Y+28	; 0x1c

00000fcc <.L1^B5>:
     fcc:	01 97       	sbiw	r24, 0x01	; 1
     fce:	f1 f7       	brne	.-4      	; 0xfcc <.L1^B5>
     fd0:	9c 8f       	std	Y+28, r25	; 0x1c
     fd2:	8b 8f       	std	Y+27, r24	; 0x1b

00000fd4 <.Loc.304>:
	...

00000fd6 <.LBE65>:
			__ticks --;
     fd6:	89 8d       	ldd	r24, Y+25	; 0x19
     fd8:	9a 8d       	ldd	r25, Y+26	; 0x1a
     fda:	01 97       	sbiw	r24, 0x01	; 1
     fdc:	9a 8f       	std	Y+26, r25	; 0x1a
     fde:	89 8f       	std	Y+25, r24	; 0x19

00000fe0 <.L87>:
		while(__ticks)
     fe0:	89 8d       	ldd	r24, Y+25	; 0x19
     fe2:	9a 8d       	ldd	r25, Y+26	; 0x1a
     fe4:	00 97       	sbiw	r24, 0x00	; 0
     fe6:	61 f7       	brne	.-40     	; 0xfc0 <.L88>

00000fe8 <.Loc.307>:
		return;
     fe8:	1d c0       	rjmp	.+58     	; 0x1024 <.L89>

00000fea <.L161>:
		__ticks = (uint16_t)__tmp;
     fea:	6d 89       	ldd	r22, Y+21	; 0x15
     fec:	7e 89       	ldd	r23, Y+22	; 0x16
     fee:	8f 89       	ldd	r24, Y+23	; 0x17
     ff0:	98 8d       	ldd	r25, Y+24	; 0x18
     ff2:	0e 94 2e 0f 	call	0x1e5c	; 0x1e5c <__fixunssfsi>
     ff6:	eb 96       	adiw	r28, 0x3b	; 59
     ff8:	6c af       	std	Y+60, r22	; 0x3c
     ffa:	7d af       	std	Y+61, r23	; 0x3d
     ffc:	8e af       	std	Y+62, r24	; 0x3e
     ffe:	9f af       	std	Y+63, r25	; 0x3f
    1000:	eb 97       	sbiw	r28, 0x3b	; 59
    1002:	e9 96       	adiw	r28, 0x39	; 57
    1004:	ee ad       	ldd	r30, Y+62	; 0x3e
    1006:	ff ad       	ldd	r31, Y+63	; 0x3f
    1008:	e9 97       	sbiw	r28, 0x39	; 57
    100a:	fa 8f       	std	Y+26, r31	; 0x1a
    100c:	e9 8f       	std	Y+25, r30	; 0x19

0000100e <.L84>:
    100e:	89 8d       	ldd	r24, Y+25	; 0x19
    1010:	9a 8d       	ldd	r25, Y+26	; 0x1a
    1012:	9e 8f       	std	Y+30, r25	; 0x1e
    1014:	8d 8f       	std	Y+29, r24	; 0x1d

00001016 <.LBB67>:
    1016:	8d 8d       	ldd	r24, Y+29	; 0x1d
    1018:	9e 8d       	ldd	r25, Y+30	; 0x1e

0000101a <.L1^B6>:
    101a:	01 97       	sbiw	r24, 0x01	; 1
    101c:	f1 f7       	brne	.-4      	; 0x101a <.L1^B6>
    101e:	9e 8f       	std	Y+30, r25	; 0x1e
    1020:	8d 8f       	std	Y+29, r24	; 0x1d

00001022 <.Loc.310>:
	...

00001024 <.L89>:
            {
                _delay_ms(debounceTime);
                knop_brugOpen = 1;
    1024:	81 e0       	ldi	r24, 0x01	; 1
    1026:	90 e0       	ldi	r25, 0x00	; 0
    1028:	9a 83       	std	Y+2, r25	; 0x02
    102a:	89 83       	std	Y+1, r24	; 0x01

0000102c <.L81>:

            }
            if (!(PINF & (1<<knop_dicht)))
    102c:	8f e2       	ldi	r24, 0x2F	; 47
    102e:	90 e0       	ldi	r25, 0x00	; 0
    1030:	dc 01       	movw	r26, r24
    1032:	8c 91       	ld	r24, X

00001034 <.Loc.313>:
    1034:	88 2f       	mov	r24, r24
    1036:	90 e0       	ldi	r25, 0x00	; 0
    1038:	84 70       	andi	r24, 0x04	; 4
    103a:	99 27       	eor	r25, r25

0000103c <.Loc.314>:
    103c:	00 97       	sbiw	r24, 0x00	; 0
    103e:	09 f0       	breq	.+2      	; 0x1042 <L0^A+0x2>

00001040 <L0^A>:
    1040:	b4 c0       	rjmp	.+360    	; 0x11aa <.L90>
    1042:	80 e0       	ldi	r24, 0x00	; 0
    1044:	90 e0       	ldi	r25, 0x00	; 0
    1046:	a0 e2       	ldi	r26, 0x20	; 32
    1048:	b1 e4       	ldi	r27, 0x41	; 65
    104a:	8f 8f       	std	Y+31, r24	; 0x1f
    104c:	98 a3       	std	Y+32, r25	; 0x20
    104e:	a9 a3       	std	Y+33, r26	; 0x21
    1050:	ba a3       	std	Y+34, r27	; 0x22

00001052 <.LBB69>:
	__tmp = ((F_CPU) / 4e3) * __ms;
    1052:	20 e0       	ldi	r18, 0x00	; 0
    1054:	30 e0       	ldi	r19, 0x00	; 0
    1056:	4a e7       	ldi	r20, 0x7A	; 122
    1058:	55 e4       	ldi	r21, 0x45	; 69
    105a:	6f 8d       	ldd	r22, Y+31	; 0x1f
    105c:	78 a1       	ldd	r23, Y+32	; 0x20
    105e:	89 a1       	ldd	r24, Y+33	; 0x21
    1060:	9a a1       	ldd	r25, Y+34	; 0x22
    1062:	0e 94 14 10 	call	0x2028	; 0x2028 <__mulsf3>
    1066:	ef 96       	adiw	r28, 0x3f	; 63
    1068:	6c af       	std	Y+60, r22	; 0x3c
    106a:	7d af       	std	Y+61, r23	; 0x3d
    106c:	8e af       	std	Y+62, r24	; 0x3e
    106e:	9f af       	std	Y+63, r25	; 0x3f
    1070:	ef 97       	sbiw	r28, 0x3f	; 63
    1072:	ef 96       	adiw	r28, 0x3f	; 63
    1074:	8c ad       	ldd	r24, Y+60	; 0x3c
    1076:	9d ad       	ldd	r25, Y+61	; 0x3d
    1078:	ae ad       	ldd	r26, Y+62	; 0x3e
    107a:	bf ad       	ldd	r27, Y+63	; 0x3f
    107c:	ef 97       	sbiw	r28, 0x3f	; 63
    107e:	8b a3       	std	Y+35, r24	; 0x23
    1080:	9c a3       	std	Y+36, r25	; 0x24
    1082:	ad a3       	std	Y+37, r26	; 0x25
    1084:	be a3       	std	Y+38, r27	; 0x26

00001086 <.Loc.316>:
	if (__tmp < 1.0)
    1086:	20 e0       	ldi	r18, 0x00	; 0
    1088:	30 e0       	ldi	r19, 0x00	; 0
    108a:	40 e8       	ldi	r20, 0x80	; 128
    108c:	5f e3       	ldi	r21, 0x3F	; 63
    108e:	6b a1       	ldd	r22, Y+35	; 0x23
    1090:	7c a1       	ldd	r23, Y+36	; 0x24
    1092:	8d a1       	ldd	r24, Y+37	; 0x25
    1094:	9e a1       	ldd	r25, Y+38	; 0x26
    1096:	0e 94 29 0f 	call	0x1e52	; 0x1e52 <__cmpsf2>
    109a:	88 23       	and	r24, r24
    109c:	2c f4       	brge	.+10     	; 0x10a8 <.L162>

0000109e <.Loc.317>:
		__ticks = 1;
    109e:	81 e0       	ldi	r24, 0x01	; 1
    10a0:	90 e0       	ldi	r25, 0x00	; 0
    10a2:	98 a7       	std	Y+40, r25	; 0x28
    10a4:	8f a3       	std	Y+39, r24	; 0x27
    10a6:	72 c0       	rjmp	.+228    	; 0x118c <.L93>

000010a8 <.L162>:
	else if (__tmp > 65535)
    10a8:	20 e0       	ldi	r18, 0x00	; 0
    10aa:	3f ef       	ldi	r19, 0xFF	; 255
    10ac:	4f e7       	ldi	r20, 0x7F	; 127
    10ae:	57 e4       	ldi	r21, 0x47	; 71
    10b0:	6b a1       	ldd	r22, Y+35	; 0x23
    10b2:	7c a1       	ldd	r23, Y+36	; 0x24
    10b4:	8d a1       	ldd	r24, Y+37	; 0x25
    10b6:	9e a1       	ldd	r25, Y+38	; 0x26
    10b8:	0e 94 0f 10 	call	0x201e	; 0x201e <__gesf2>
    10bc:	88 23       	and	r24, r24
    10be:	09 f0       	breq	.+2      	; 0x10c2 <L0^A>

000010c0 <L0^A>:
    10c0:	0c f4       	brge	.+2      	; 0x10c4 <.Loc.319>

000010c2 <L0^A>:
    10c2:	4e c0       	rjmp	.+156    	; 0x1160 <.L163>

000010c4 <.Loc.319>:
		__ticks = (uint16_t) (__ms * 10.0);
    10c4:	20 e0       	ldi	r18, 0x00	; 0
    10c6:	30 e0       	ldi	r19, 0x00	; 0
    10c8:	40 e2       	ldi	r20, 0x20	; 32
    10ca:	51 e4       	ldi	r21, 0x41	; 65
    10cc:	6f 8d       	ldd	r22, Y+31	; 0x1f
    10ce:	78 a1       	ldd	r23, Y+32	; 0x20
    10d0:	89 a1       	ldd	r24, Y+33	; 0x21
    10d2:	9a a1       	ldd	r25, Y+34	; 0x22
    10d4:	0e 94 14 10 	call	0x2028	; 0x2028 <__mulsf3>
    10d8:	c1 58       	subi	r28, 0x81	; 129
    10da:	df 4f       	sbci	r29, 0xFF	; 255
    10dc:	68 83       	st	Y, r22
    10de:	79 83       	std	Y+1, r23	; 0x01
    10e0:	8a 83       	std	Y+2, r24	; 0x02
    10e2:	9b 83       	std	Y+3, r25	; 0x03
    10e4:	cf 57       	subi	r28, 0x7F	; 127
    10e6:	d0 40       	sbci	r29, 0x00	; 0
    10e8:	c1 58       	subi	r28, 0x81	; 129
    10ea:	df 4f       	sbci	r29, 0xFF	; 255
    10ec:	88 81       	ld	r24, Y
    10ee:	99 81       	ldd	r25, Y+1	; 0x01
    10f0:	aa 81       	ldd	r26, Y+2	; 0x02
    10f2:	bb 81       	ldd	r27, Y+3	; 0x03
    10f4:	cf 57       	subi	r28, 0x7F	; 127
    10f6:	d0 40       	sbci	r29, 0x00	; 0
    10f8:	6f 96       	adiw	r28, 0x1f	; 31
    10fa:	8c af       	std	Y+60, r24	; 0x3c
    10fc:	9d af       	std	Y+61, r25	; 0x3d
    10fe:	ae af       	std	Y+62, r26	; 0x3e
    1100:	bf af       	std	Y+63, r27	; 0x3f
    1102:	6f 97       	sbiw	r28, 0x1f	; 31

00001104 <.Loc.320>:
    1104:	6f 96       	adiw	r28, 0x1f	; 31
    1106:	6c ad       	ldd	r22, Y+60	; 0x3c
    1108:	7d ad       	ldd	r23, Y+61	; 0x3d
    110a:	8e ad       	ldd	r24, Y+62	; 0x3e
    110c:	9f ad       	ldd	r25, Y+63	; 0x3f
    110e:	6f 97       	sbiw	r28, 0x1f	; 31
    1110:	0e 94 2e 0f 	call	0x1e5c	; 0x1e5c <__fixunssfsi>
    1114:	cd 57       	subi	r28, 0x7D	; 125
    1116:	df 4f       	sbci	r29, 0xFF	; 255
    1118:	68 83       	st	Y, r22
    111a:	79 83       	std	Y+1, r23	; 0x01
    111c:	8a 83       	std	Y+2, r24	; 0x02
    111e:	9b 83       	std	Y+3, r25	; 0x03
    1120:	c3 58       	subi	r28, 0x83	; 131
    1122:	d0 40       	sbci	r29, 0x00	; 0
    1124:	cd 57       	subi	r28, 0x7D	; 125
    1126:	df 4f       	sbci	r29, 0xFF	; 255
    1128:	a8 81       	ld	r26, Y
    112a:	b9 81       	ldd	r27, Y+1	; 0x01
    112c:	c3 58       	subi	r28, 0x83	; 131
    112e:	d0 40       	sbci	r29, 0x00	; 0
    1130:	b8 a7       	std	Y+40, r27	; 0x28
    1132:	af a3       	std	Y+39, r26	; 0x27

00001134 <.Loc.321>:
		while(__ticks)
    1134:	10 c0       	rjmp	.+32     	; 0x1156 <.L96>

00001136 <.L97>:
    1136:	80 e9       	ldi	r24, 0x90	; 144
    1138:	91 e0       	ldi	r25, 0x01	; 1
    113a:	9a a7       	std	Y+42, r25	; 0x2a
    113c:	89 a7       	std	Y+41, r24	; 0x29

0000113e <.LBB71>:
    113e:	89 a5       	ldd	r24, Y+41	; 0x29
    1140:	9a a5       	ldd	r25, Y+42	; 0x2a

00001142 <.L1^B7>:
    1142:	01 97       	sbiw	r24, 0x01	; 1
    1144:	f1 f7       	brne	.-4      	; 0x1142 <.L1^B7>
    1146:	9a a7       	std	Y+42, r25	; 0x2a
    1148:	89 a7       	std	Y+41, r24	; 0x29

0000114a <.Loc.323>:
	...

0000114c <.LBE71>:
			__ticks --;
    114c:	8f a1       	ldd	r24, Y+39	; 0x27
    114e:	98 a5       	ldd	r25, Y+40	; 0x28
    1150:	01 97       	sbiw	r24, 0x01	; 1
    1152:	98 a7       	std	Y+40, r25	; 0x28
    1154:	8f a3       	std	Y+39, r24	; 0x27

00001156 <.L96>:
		while(__ticks)
    1156:	8f a1       	ldd	r24, Y+39	; 0x27
    1158:	98 a5       	ldd	r25, Y+40	; 0x28
    115a:	00 97       	sbiw	r24, 0x00	; 0
    115c:	61 f7       	brne	.-40     	; 0x1136 <.L97>

0000115e <.Loc.326>:
		return;
    115e:	21 c0       	rjmp	.+66     	; 0x11a2 <.L98>

00001160 <.L163>:
		__ticks = (uint16_t)__tmp;
    1160:	6b a1       	ldd	r22, Y+35	; 0x23
    1162:	7c a1       	ldd	r23, Y+36	; 0x24
    1164:	8d a1       	ldd	r24, Y+37	; 0x25
    1166:	9e a1       	ldd	r25, Y+38	; 0x26
    1168:	0e 94 2e 0f 	call	0x1e5c	; 0x1e5c <__fixunssfsi>
    116c:	c9 57       	subi	r28, 0x79	; 121
    116e:	df 4f       	sbci	r29, 0xFF	; 255
    1170:	68 83       	st	Y, r22
    1172:	79 83       	std	Y+1, r23	; 0x01
    1174:	8a 83       	std	Y+2, r24	; 0x02
    1176:	9b 83       	std	Y+3, r25	; 0x03
    1178:	c7 58       	subi	r28, 0x87	; 135
    117a:	d0 40       	sbci	r29, 0x00	; 0
    117c:	c9 57       	subi	r28, 0x79	; 121
    117e:	df 4f       	sbci	r29, 0xFF	; 255
    1180:	e8 81       	ld	r30, Y
    1182:	f9 81       	ldd	r31, Y+1	; 0x01
    1184:	c7 58       	subi	r28, 0x87	; 135
    1186:	d0 40       	sbci	r29, 0x00	; 0
    1188:	f8 a7       	std	Y+40, r31	; 0x28
    118a:	ef a3       	std	Y+39, r30	; 0x27

0000118c <.L93>:
    118c:	8f a1       	ldd	r24, Y+39	; 0x27
    118e:	98 a5       	ldd	r25, Y+40	; 0x28
    1190:	9c a7       	std	Y+44, r25	; 0x2c
    1192:	8b a7       	std	Y+43, r24	; 0x2b

00001194 <.LBB73>:
    1194:	8b a5       	ldd	r24, Y+43	; 0x2b
    1196:	9c a5       	ldd	r25, Y+44	; 0x2c

00001198 <.L1^B8>:
    1198:	01 97       	sbiw	r24, 0x01	; 1
    119a:	f1 f7       	brne	.-4      	; 0x1198 <.L1^B8>
    119c:	9c a7       	std	Y+44, r25	; 0x2c
    119e:	8b a7       	std	Y+43, r24	; 0x2b

000011a0 <.Loc.329>:
	...

000011a2 <.L98>:
            {
                _delay_ms(debounceTime);
                knop_brugDicht = 1;
    11a2:	81 e0       	ldi	r24, 0x01	; 1
    11a4:	90 e0       	ldi	r25, 0x00	; 0
    11a6:	9c 83       	std	Y+4, r25	; 0x04
    11a8:	8b 83       	std	Y+3, r24	; 0x03

000011aa <.L90>:
            }
            if (!(PINF & (1<<knop_geel)))
    11aa:	8f e2       	ldi	r24, 0x2F	; 47
    11ac:	90 e0       	ldi	r25, 0x00	; 0
    11ae:	dc 01       	movw	r26, r24
    11b0:	8c 91       	ld	r24, X

000011b2 <.Loc.332>:
    11b2:	88 2f       	mov	r24, r24
    11b4:	90 e0       	ldi	r25, 0x00	; 0
    11b6:	88 70       	andi	r24, 0x08	; 8
    11b8:	99 27       	eor	r25, r25

000011ba <.Loc.333>:
    11ba:	00 97       	sbiw	r24, 0x00	; 0
    11bc:	09 f0       	breq	.+2      	; 0x11c0 <L0^A+0x2>

000011be <L0^A>:
    11be:	b8 c0       	rjmp	.+368    	; 0x1330 <.L99>
    11c0:	80 e0       	ldi	r24, 0x00	; 0
    11c2:	90 e0       	ldi	r25, 0x00	; 0
    11c4:	a0 e2       	ldi	r26, 0x20	; 32
    11c6:	b1 e4       	ldi	r27, 0x41	; 65
    11c8:	8d a7       	std	Y+45, r24	; 0x2d
    11ca:	9e a7       	std	Y+46, r25	; 0x2e
    11cc:	af a7       	std	Y+47, r26	; 0x2f
    11ce:	b8 ab       	std	Y+48, r27	; 0x30

000011d0 <.LBB75>:
	__tmp = ((F_CPU) / 4e3) * __ms;
    11d0:	20 e0       	ldi	r18, 0x00	; 0
    11d2:	30 e0       	ldi	r19, 0x00	; 0
    11d4:	4a e7       	ldi	r20, 0x7A	; 122
    11d6:	55 e4       	ldi	r21, 0x45	; 69
    11d8:	6d a5       	ldd	r22, Y+45	; 0x2d
    11da:	7e a5       	ldd	r23, Y+46	; 0x2e
    11dc:	8f a5       	ldd	r24, Y+47	; 0x2f
    11de:	98 a9       	ldd	r25, Y+48	; 0x30
    11e0:	0e 94 14 10 	call	0x2028	; 0x2028 <__mulsf3>
    11e4:	c5 57       	subi	r28, 0x75	; 117
    11e6:	df 4f       	sbci	r29, 0xFF	; 255
    11e8:	68 83       	st	Y, r22
    11ea:	79 83       	std	Y+1, r23	; 0x01
    11ec:	8a 83       	std	Y+2, r24	; 0x02
    11ee:	9b 83       	std	Y+3, r25	; 0x03
    11f0:	cb 58       	subi	r28, 0x8B	; 139
    11f2:	d0 40       	sbci	r29, 0x00	; 0
    11f4:	c5 57       	subi	r28, 0x75	; 117
    11f6:	df 4f       	sbci	r29, 0xFF	; 255
    11f8:	88 81       	ld	r24, Y
    11fa:	99 81       	ldd	r25, Y+1	; 0x01
    11fc:	aa 81       	ldd	r26, Y+2	; 0x02
    11fe:	bb 81       	ldd	r27, Y+3	; 0x03
    1200:	cb 58       	subi	r28, 0x8B	; 139
    1202:	d0 40       	sbci	r29, 0x00	; 0
    1204:	89 ab       	std	Y+49, r24	; 0x31
    1206:	9a ab       	std	Y+50, r25	; 0x32
    1208:	ab ab       	std	Y+51, r26	; 0x33
    120a:	bc ab       	std	Y+52, r27	; 0x34

0000120c <.Loc.335>:
	if (__tmp < 1.0)
    120c:	20 e0       	ldi	r18, 0x00	; 0
    120e:	30 e0       	ldi	r19, 0x00	; 0
    1210:	40 e8       	ldi	r20, 0x80	; 128
    1212:	5f e3       	ldi	r21, 0x3F	; 63
    1214:	69 a9       	ldd	r22, Y+49	; 0x31
    1216:	7a a9       	ldd	r23, Y+50	; 0x32
    1218:	8b a9       	ldd	r24, Y+51	; 0x33
    121a:	9c a9       	ldd	r25, Y+52	; 0x34
    121c:	0e 94 29 0f 	call	0x1e52	; 0x1e52 <__cmpsf2>
    1220:	88 23       	and	r24, r24
    1222:	2c f4       	brge	.+10     	; 0x122e <.L164>

00001224 <.Loc.336>:
		__ticks = 1;
    1224:	81 e0       	ldi	r24, 0x01	; 1
    1226:	90 e0       	ldi	r25, 0x00	; 0
    1228:	9e ab       	std	Y+54, r25	; 0x36
    122a:	8d ab       	std	Y+53, r24	; 0x35
    122c:	72 c0       	rjmp	.+228    	; 0x1312 <.L102>

0000122e <.L164>:
	else if (__tmp > 65535)
    122e:	20 e0       	ldi	r18, 0x00	; 0
    1230:	3f ef       	ldi	r19, 0xFF	; 255
    1232:	4f e7       	ldi	r20, 0x7F	; 127
    1234:	57 e4       	ldi	r21, 0x47	; 71
    1236:	69 a9       	ldd	r22, Y+49	; 0x31
    1238:	7a a9       	ldd	r23, Y+50	; 0x32
    123a:	8b a9       	ldd	r24, Y+51	; 0x33
    123c:	9c a9       	ldd	r25, Y+52	; 0x34
    123e:	0e 94 0f 10 	call	0x201e	; 0x201e <__gesf2>
    1242:	88 23       	and	r24, r24
    1244:	09 f0       	breq	.+2      	; 0x1248 <L0^A>

00001246 <L0^A>:
    1246:	0c f4       	brge	.+2      	; 0x124a <.Loc.338>

00001248 <L0^A>:
    1248:	4e c0       	rjmp	.+156    	; 0x12e6 <.L165>

0000124a <.Loc.338>:
		__ticks = (uint16_t) (__ms * 10.0);
    124a:	20 e0       	ldi	r18, 0x00	; 0
    124c:	30 e0       	ldi	r19, 0x00	; 0
    124e:	40 e2       	ldi	r20, 0x20	; 32
    1250:	51 e4       	ldi	r21, 0x41	; 65
    1252:	6d a5       	ldd	r22, Y+45	; 0x2d
    1254:	7e a5       	ldd	r23, Y+46	; 0x2e
    1256:	8f a5       	ldd	r24, Y+47	; 0x2f
    1258:	98 a9       	ldd	r25, Y+48	; 0x30
    125a:	0e 94 14 10 	call	0x2028	; 0x2028 <__mulsf3>
    125e:	c1 57       	subi	r28, 0x71	; 113
    1260:	df 4f       	sbci	r29, 0xFF	; 255
    1262:	68 83       	st	Y, r22
    1264:	79 83       	std	Y+1, r23	; 0x01
    1266:	8a 83       	std	Y+2, r24	; 0x02
    1268:	9b 83       	std	Y+3, r25	; 0x03
    126a:	cf 58       	subi	r28, 0x8F	; 143
    126c:	d0 40       	sbci	r29, 0x00	; 0
    126e:	c1 57       	subi	r28, 0x71	; 113
    1270:	df 4f       	sbci	r29, 0xFF	; 255
    1272:	88 81       	ld	r24, Y
    1274:	99 81       	ldd	r25, Y+1	; 0x01
    1276:	aa 81       	ldd	r26, Y+2	; 0x02
    1278:	bb 81       	ldd	r27, Y+3	; 0x03
    127a:	cf 58       	subi	r28, 0x8F	; 143
    127c:	d0 40       	sbci	r29, 0x00	; 0
    127e:	a3 96       	adiw	r28, 0x23	; 35
    1280:	8c af       	std	Y+60, r24	; 0x3c
    1282:	9d af       	std	Y+61, r25	; 0x3d
    1284:	ae af       	std	Y+62, r26	; 0x3e
    1286:	bf af       	std	Y+63, r27	; 0x3f
    1288:	a3 97       	sbiw	r28, 0x23	; 35

0000128a <.Loc.339>:
    128a:	a3 96       	adiw	r28, 0x23	; 35
    128c:	6c ad       	ldd	r22, Y+60	; 0x3c
    128e:	7d ad       	ldd	r23, Y+61	; 0x3d
    1290:	8e ad       	ldd	r24, Y+62	; 0x3e
    1292:	9f ad       	ldd	r25, Y+63	; 0x3f
    1294:	a3 97       	sbiw	r28, 0x23	; 35
    1296:	0e 94 2e 0f 	call	0x1e5c	; 0x1e5c <__fixunssfsi>
    129a:	cd 56       	subi	r28, 0x6D	; 109
    129c:	df 4f       	sbci	r29, 0xFF	; 255
    129e:	68 83       	st	Y, r22
    12a0:	79 83       	std	Y+1, r23	; 0x01
    12a2:	8a 83       	std	Y+2, r24	; 0x02
    12a4:	9b 83       	std	Y+3, r25	; 0x03
    12a6:	c3 59       	subi	r28, 0x93	; 147
    12a8:	d0 40       	sbci	r29, 0x00	; 0
    12aa:	cd 56       	subi	r28, 0x6D	; 109
    12ac:	df 4f       	sbci	r29, 0xFF	; 255
    12ae:	a8 81       	ld	r26, Y
    12b0:	b9 81       	ldd	r27, Y+1	; 0x01
    12b2:	c3 59       	subi	r28, 0x93	; 147
    12b4:	d0 40       	sbci	r29, 0x00	; 0
    12b6:	be ab       	std	Y+54, r27	; 0x36
    12b8:	ad ab       	std	Y+53, r26	; 0x35

000012ba <.Loc.340>:
		while(__ticks)
    12ba:	10 c0       	rjmp	.+32     	; 0x12dc <.L105>

000012bc <.L106>:
    12bc:	80 e9       	ldi	r24, 0x90	; 144
    12be:	91 e0       	ldi	r25, 0x01	; 1
    12c0:	98 af       	std	Y+56, r25	; 0x38
    12c2:	8f ab       	std	Y+55, r24	; 0x37

000012c4 <.LBB77>:
    12c4:	8f a9       	ldd	r24, Y+55	; 0x37
    12c6:	98 ad       	ldd	r25, Y+56	; 0x38

000012c8 <.L1^B9>:
    12c8:	01 97       	sbiw	r24, 0x01	; 1
    12ca:	f1 f7       	brne	.-4      	; 0x12c8 <.L1^B9>
    12cc:	98 af       	std	Y+56, r25	; 0x38
    12ce:	8f ab       	std	Y+55, r24	; 0x37

000012d0 <.Loc.342>:
	...

000012d2 <.LBE77>:
			__ticks --;
    12d2:	8d a9       	ldd	r24, Y+53	; 0x35
    12d4:	9e a9       	ldd	r25, Y+54	; 0x36
    12d6:	01 97       	sbiw	r24, 0x01	; 1
    12d8:	9e ab       	std	Y+54, r25	; 0x36
    12da:	8d ab       	std	Y+53, r24	; 0x35

000012dc <.L105>:
		while(__ticks)
    12dc:	8d a9       	ldd	r24, Y+53	; 0x35
    12de:	9e a9       	ldd	r25, Y+54	; 0x36
    12e0:	00 97       	sbiw	r24, 0x00	; 0
    12e2:	61 f7       	brne	.-40     	; 0x12bc <.L106>

000012e4 <.Loc.345>:
		return;
    12e4:	21 c0       	rjmp	.+66     	; 0x1328 <.L107>

000012e6 <.L165>:
		__ticks = (uint16_t)__tmp;
    12e6:	69 a9       	ldd	r22, Y+49	; 0x31
    12e8:	7a a9       	ldd	r23, Y+50	; 0x32
    12ea:	8b a9       	ldd	r24, Y+51	; 0x33
    12ec:	9c a9       	ldd	r25, Y+52	; 0x34
    12ee:	0e 94 2e 0f 	call	0x1e5c	; 0x1e5c <__fixunssfsi>
    12f2:	c9 56       	subi	r28, 0x69	; 105
    12f4:	df 4f       	sbci	r29, 0xFF	; 255
    12f6:	68 83       	st	Y, r22
    12f8:	79 83       	std	Y+1, r23	; 0x01
    12fa:	8a 83       	std	Y+2, r24	; 0x02
    12fc:	9b 83       	std	Y+3, r25	; 0x03
    12fe:	c7 59       	subi	r28, 0x97	; 151
    1300:	d0 40       	sbci	r29, 0x00	; 0
    1302:	c9 56       	subi	r28, 0x69	; 105
    1304:	df 4f       	sbci	r29, 0xFF	; 255
    1306:	e8 81       	ld	r30, Y
    1308:	f9 81       	ldd	r31, Y+1	; 0x01
    130a:	c7 59       	subi	r28, 0x97	; 151
    130c:	d0 40       	sbci	r29, 0x00	; 0
    130e:	fe ab       	std	Y+54, r31	; 0x36
    1310:	ed ab       	std	Y+53, r30	; 0x35

00001312 <.L102>:
    1312:	8d a9       	ldd	r24, Y+53	; 0x35
    1314:	9e a9       	ldd	r25, Y+54	; 0x36
    1316:	9a af       	std	Y+58, r25	; 0x3a
    1318:	89 af       	std	Y+57, r24	; 0x39

0000131a <.LBB79>:
    131a:	89 ad       	ldd	r24, Y+57	; 0x39
    131c:	9a ad       	ldd	r25, Y+58	; 0x3a

0000131e <.L1^B10>:
    131e:	01 97       	sbiw	r24, 0x01	; 1
    1320:	f1 f7       	brne	.-4      	; 0x131e <.L1^B10>
    1322:	9a af       	std	Y+58, r25	; 0x3a
    1324:	89 af       	std	Y+57, r24	; 0x39

00001326 <.Loc.348>:
	...

00001328 <.L107>:
            {
                _delay_ms(debounceTime);
                knop_geel_LED = 1;
    1328:	81 e0       	ldi	r24, 0x01	; 1
    132a:	90 e0       	ldi	r25, 0x00	; 0
    132c:	9e 83       	std	Y+6, r25	; 0x06
    132e:	8d 83       	std	Y+5, r24	; 0x05

00001330 <.L99>:
            }
            if (!(PINK & (1<<knop_stop_o)))
    1330:	86 e0       	ldi	r24, 0x06	; 6
    1332:	91 e0       	ldi	r25, 0x01	; 1
    1334:	dc 01       	movw	r26, r24
    1336:	8c 91       	ld	r24, X

00001338 <.Loc.351>:
    1338:	88 2f       	mov	r24, r24
    133a:	90 e0       	ldi	r25, 0x00	; 0
    133c:	81 70       	andi	r24, 0x01	; 1
    133e:	99 27       	eor	r25, r25

00001340 <.Loc.352>:
    1340:	00 97       	sbiw	r24, 0x00	; 0
    1342:	09 f0       	breq	.+2      	; 0x1346 <L0^A+0x2>

00001344 <L0^A>:
    1344:	fc c0       	rjmp	.+504    	; 0x153e <.L108>
    1346:	80 e0       	ldi	r24, 0x00	; 0
    1348:	90 e0       	ldi	r25, 0x00	; 0
    134a:	a0 e2       	ldi	r26, 0x20	; 32
    134c:	b1 e4       	ldi	r27, 0x41	; 65
    134e:	8b af       	std	Y+59, r24	; 0x3b
    1350:	9c af       	std	Y+60, r25	; 0x3c
    1352:	ad af       	std	Y+61, r26	; 0x3d
    1354:	be af       	std	Y+62, r27	; 0x3e

00001356 <.LBB81>:
	__tmp = ((F_CPU) / 4e3) * __ms;
    1356:	8e 01       	movw	r16, r28
    1358:	01 5c       	subi	r16, 0xC1	; 193
    135a:	1f 4f       	sbci	r17, 0xFF	; 255
    135c:	20 e0       	ldi	r18, 0x00	; 0
    135e:	30 e0       	ldi	r19, 0x00	; 0
    1360:	4a e7       	ldi	r20, 0x7A	; 122
    1362:	55 e4       	ldi	r21, 0x45	; 69
    1364:	6b ad       	ldd	r22, Y+59	; 0x3b
    1366:	7c ad       	ldd	r23, Y+60	; 0x3c
    1368:	8d ad       	ldd	r24, Y+61	; 0x3d
    136a:	9e ad       	ldd	r25, Y+62	; 0x3e
    136c:	0e 94 14 10 	call	0x2028	; 0x2028 <__mulsf3>
    1370:	c5 56       	subi	r28, 0x65	; 101
    1372:	df 4f       	sbci	r29, 0xFF	; 255
    1374:	68 83       	st	Y, r22
    1376:	79 83       	std	Y+1, r23	; 0x01
    1378:	8a 83       	std	Y+2, r24	; 0x02
    137a:	9b 83       	std	Y+3, r25	; 0x03
    137c:	cb 59       	subi	r28, 0x9B	; 155
    137e:	d0 40       	sbci	r29, 0x00	; 0
    1380:	c5 56       	subi	r28, 0x65	; 101
    1382:	df 4f       	sbci	r29, 0xFF	; 255
    1384:	88 81       	ld	r24, Y
    1386:	99 81       	ldd	r25, Y+1	; 0x01
    1388:	aa 81       	ldd	r26, Y+2	; 0x02
    138a:	bb 81       	ldd	r27, Y+3	; 0x03
    138c:	cb 59       	subi	r28, 0x9B	; 155
    138e:	d0 40       	sbci	r29, 0x00	; 0
    1390:	f8 01       	movw	r30, r16
    1392:	80 83       	st	Z, r24
    1394:	91 83       	std	Z+1, r25	; 0x01
    1396:	a2 83       	std	Z+2, r26	; 0x02
    1398:	b3 83       	std	Z+3, r27	; 0x03

0000139a <.Loc.354>:
	if (__tmp < 1.0)
    139a:	ce 01       	movw	r24, r28
    139c:	cf 96       	adiw	r24, 0x3f	; 63
    139e:	20 e0       	ldi	r18, 0x00	; 0
    13a0:	30 e0       	ldi	r19, 0x00	; 0
    13a2:	40 e8       	ldi	r20, 0x80	; 128
    13a4:	5f e3       	ldi	r21, 0x3F	; 63
    13a6:	dc 01       	movw	r26, r24
    13a8:	6d 91       	ld	r22, X+
    13aa:	7d 91       	ld	r23, X+
    13ac:	8d 91       	ld	r24, X+
    13ae:	9c 91       	ld	r25, X
    13b0:	0e 94 29 0f 	call	0x1e52	; 0x1e52 <__cmpsf2>
    13b4:	88 23       	and	r24, r24
    13b6:	4c f4       	brge	.+18     	; 0x13ca <.L166>

000013b8 <.Loc.355>:
		__ticks = 1;
    13b8:	ce 01       	movw	r24, r28
    13ba:	8d 5b       	subi	r24, 0xBD	; 189
    13bc:	9f 4f       	sbci	r25, 0xFF	; 255
    13be:	21 e0       	ldi	r18, 0x01	; 1
    13c0:	30 e0       	ldi	r19, 0x00	; 0
    13c2:	fc 01       	movw	r30, r24
    13c4:	31 83       	std	Z+1, r19	; 0x01
    13c6:	20 83       	st	Z, r18
    13c8:	9b c0       	rjmp	.+310    	; 0x1500 <.L111>

000013ca <.L166>:
	else if (__tmp > 65535)
    13ca:	ce 01       	movw	r24, r28
    13cc:	cf 96       	adiw	r24, 0x3f	; 63
    13ce:	20 e0       	ldi	r18, 0x00	; 0
    13d0:	3f ef       	ldi	r19, 0xFF	; 255
    13d2:	4f e7       	ldi	r20, 0x7F	; 127
    13d4:	57 e4       	ldi	r21, 0x47	; 71
    13d6:	dc 01       	movw	r26, r24
    13d8:	6d 91       	ld	r22, X+
    13da:	7d 91       	ld	r23, X+
    13dc:	8d 91       	ld	r24, X+
    13de:	9c 91       	ld	r25, X
    13e0:	0e 94 0f 10 	call	0x201e	; 0x201e <__gesf2>
    13e4:	88 23       	and	r24, r24
    13e6:	09 f0       	breq	.+2      	; 0x13ea <L0^A>

000013e8 <L0^A>:
    13e8:	0c f4       	brge	.+2      	; 0x13ec <.Loc.357>

000013ea <L0^A>:
    13ea:	6d c0       	rjmp	.+218    	; 0x14c6 <.L167>

000013ec <.Loc.357>:
		__ticks = (uint16_t) (__ms * 10.0);
    13ec:	20 e0       	ldi	r18, 0x00	; 0
    13ee:	30 e0       	ldi	r19, 0x00	; 0
    13f0:	40 e2       	ldi	r20, 0x20	; 32
    13f2:	51 e4       	ldi	r21, 0x41	; 65
    13f4:	6b ad       	ldd	r22, Y+59	; 0x3b
    13f6:	7c ad       	ldd	r23, Y+60	; 0x3c
    13f8:	8d ad       	ldd	r24, Y+61	; 0x3d
    13fa:	9e ad       	ldd	r25, Y+62	; 0x3e
    13fc:	0e 94 14 10 	call	0x2028	; 0x2028 <__mulsf3>
    1400:	c1 56       	subi	r28, 0x61	; 97
    1402:	df 4f       	sbci	r29, 0xFF	; 255
    1404:	68 83       	st	Y, r22
    1406:	79 83       	std	Y+1, r23	; 0x01
    1408:	8a 83       	std	Y+2, r24	; 0x02
    140a:	9b 83       	std	Y+3, r25	; 0x03
    140c:	cf 59       	subi	r28, 0x9F	; 159
    140e:	d0 40       	sbci	r29, 0x00	; 0
    1410:	c1 56       	subi	r28, 0x61	; 97
    1412:	df 4f       	sbci	r29, 0xFF	; 255
    1414:	88 81       	ld	r24, Y
    1416:	99 81       	ldd	r25, Y+1	; 0x01
    1418:	aa 81       	ldd	r26, Y+2	; 0x02
    141a:	bb 81       	ldd	r27, Y+3	; 0x03
    141c:	cf 59       	subi	r28, 0x9F	; 159
    141e:	d0 40       	sbci	r29, 0x00	; 0
    1420:	a7 96       	adiw	r28, 0x27	; 39
    1422:	8c af       	std	Y+60, r24	; 0x3c
    1424:	9d af       	std	Y+61, r25	; 0x3d
    1426:	ae af       	std	Y+62, r26	; 0x3e
    1428:	bf af       	std	Y+63, r27	; 0x3f
    142a:	a7 97       	sbiw	r28, 0x27	; 39

0000142c <.Loc.358>:
    142c:	8e 01       	movw	r16, r28
    142e:	0d 5b       	subi	r16, 0xBD	; 189
    1430:	1f 4f       	sbci	r17, 0xFF	; 255
    1432:	a7 96       	adiw	r28, 0x27	; 39
    1434:	6c ad       	ldd	r22, Y+60	; 0x3c
    1436:	7d ad       	ldd	r23, Y+61	; 0x3d
    1438:	8e ad       	ldd	r24, Y+62	; 0x3e
    143a:	9f ad       	ldd	r25, Y+63	; 0x3f
    143c:	a7 97       	sbiw	r28, 0x27	; 39
    143e:	0e 94 2e 0f 	call	0x1e5c	; 0x1e5c <__fixunssfsi>
    1442:	cd 55       	subi	r28, 0x5D	; 93
    1444:	df 4f       	sbci	r29, 0xFF	; 255
    1446:	68 83       	st	Y, r22
    1448:	79 83       	std	Y+1, r23	; 0x01
    144a:	8a 83       	std	Y+2, r24	; 0x02
    144c:	9b 83       	std	Y+3, r25	; 0x03
    144e:	c3 5a       	subi	r28, 0xA3	; 163
    1450:	d0 40       	sbci	r29, 0x00	; 0
    1452:	cd 55       	subi	r28, 0x5D	; 93
    1454:	df 4f       	sbci	r29, 0xFF	; 255
    1456:	e8 81       	ld	r30, Y
    1458:	f9 81       	ldd	r31, Y+1	; 0x01
    145a:	c3 5a       	subi	r28, 0xA3	; 163
    145c:	d0 40       	sbci	r29, 0x00	; 0
    145e:	d8 01       	movw	r26, r16
    1460:	11 96       	adiw	r26, 0x01	; 1
    1462:	fc 93       	st	X, r31
    1464:	ee 93       	st	-X, r30

00001466 <.Loc.359>:
		while(__ticks)
    1466:	26 c0       	rjmp	.+76     	; 0x14b4 <.L114>

00001468 <.L115>:
    1468:	ce 01       	movw	r24, r28
    146a:	8b 5b       	subi	r24, 0xBB	; 187
    146c:	9f 4f       	sbci	r25, 0xFF	; 255
    146e:	20 e9       	ldi	r18, 0x90	; 144
    1470:	31 e0       	ldi	r19, 0x01	; 1
    1472:	dc 01       	movw	r26, r24
    1474:	2d 93       	st	X+, r18
    1476:	3c 93       	st	X, r19

00001478 <.LBB83>:
    1478:	ce 01       	movw	r24, r28
    147a:	8b 5b       	subi	r24, 0xBB	; 187
    147c:	9f 4f       	sbci	r25, 0xFF	; 255
    147e:	fc 01       	movw	r30, r24
    1480:	80 81       	ld	r24, Z
    1482:	91 81       	ldd	r25, Z+1	; 0x01

00001484 <.L1^B11>:
    1484:	01 97       	sbiw	r24, 0x01	; 1
    1486:	f1 f7       	brne	.-4      	; 0x1484 <.L1^B11>
    1488:	9e 01       	movw	r18, r28
    148a:	2b 5b       	subi	r18, 0xBB	; 187
    148c:	3f 4f       	sbci	r19, 0xFF	; 255
    148e:	d9 01       	movw	r26, r18
    1490:	8d 93       	st	X+, r24
    1492:	9c 93       	st	X, r25

00001494 <.Loc.361>:
	...

00001496 <.LBE83>:
			__ticks --;
    1496:	ce 01       	movw	r24, r28
    1498:	8d 5b       	subi	r24, 0xBD	; 189
    149a:	9f 4f       	sbci	r25, 0xFF	; 255
    149c:	9e 01       	movw	r18, r28
    149e:	2d 5b       	subi	r18, 0xBD	; 189
    14a0:	3f 4f       	sbci	r19, 0xFF	; 255
    14a2:	f9 01       	movw	r30, r18
    14a4:	20 81       	ld	r18, Z
    14a6:	31 81       	ldd	r19, Z+1	; 0x01
    14a8:	21 50       	subi	r18, 0x01	; 1
    14aa:	31 09       	sbc	r19, r1
    14ac:	dc 01       	movw	r26, r24
    14ae:	11 96       	adiw	r26, 0x01	; 1
    14b0:	3c 93       	st	X, r19
    14b2:	2e 93       	st	-X, r18

000014b4 <.L114>:
		while(__ticks)
    14b4:	ce 01       	movw	r24, r28
    14b6:	8d 5b       	subi	r24, 0xBD	; 189
    14b8:	9f 4f       	sbci	r25, 0xFF	; 255
    14ba:	fc 01       	movw	r30, r24
    14bc:	80 81       	ld	r24, Z
    14be:	91 81       	ldd	r25, Z+1	; 0x01
    14c0:	00 97       	sbiw	r24, 0x00	; 0
    14c2:	91 f6       	brne	.-92     	; 0x1468 <.L115>

000014c4 <.Loc.364>:
		return;
    14c4:	38 c0       	rjmp	.+112    	; 0x1536 <.L116>

000014c6 <.L167>:
		__ticks = (uint16_t)__tmp;
    14c6:	8e 01       	movw	r16, r28
    14c8:	0d 5b       	subi	r16, 0xBD	; 189
    14ca:	1f 4f       	sbci	r17, 0xFF	; 255
    14cc:	ce 01       	movw	r24, r28
    14ce:	cf 96       	adiw	r24, 0x3f	; 63
    14d0:	dc 01       	movw	r26, r24
    14d2:	6d 91       	ld	r22, X+
    14d4:	7d 91       	ld	r23, X+
    14d6:	8d 91       	ld	r24, X+
    14d8:	9c 91       	ld	r25, X
    14da:	0e 94 2e 0f 	call	0x1e5c	; 0x1e5c <__fixunssfsi>
    14de:	c9 55       	subi	r28, 0x59	; 89
    14e0:	df 4f       	sbci	r29, 0xFF	; 255
    14e2:	68 83       	st	Y, r22
    14e4:	79 83       	std	Y+1, r23	; 0x01
    14e6:	8a 83       	std	Y+2, r24	; 0x02
    14e8:	9b 83       	std	Y+3, r25	; 0x03
    14ea:	c7 5a       	subi	r28, 0xA7	; 167
    14ec:	d0 40       	sbci	r29, 0x00	; 0
    14ee:	c9 55       	subi	r28, 0x59	; 89
    14f0:	df 4f       	sbci	r29, 0xFF	; 255
    14f2:	88 81       	ld	r24, Y
    14f4:	99 81       	ldd	r25, Y+1	; 0x01
    14f6:	c7 5a       	subi	r28, 0xA7	; 167
    14f8:	d0 40       	sbci	r29, 0x00	; 0
    14fa:	f8 01       	movw	r30, r16
    14fc:	91 83       	std	Z+1, r25	; 0x01
    14fe:	80 83       	st	Z, r24

00001500 <.L111>:
    1500:	ce 01       	movw	r24, r28
    1502:	89 5b       	subi	r24, 0xB9	; 185
    1504:	9f 4f       	sbci	r25, 0xFF	; 255
    1506:	9e 01       	movw	r18, r28
    1508:	2d 5b       	subi	r18, 0xBD	; 189
    150a:	3f 4f       	sbci	r19, 0xFF	; 255
    150c:	d9 01       	movw	r26, r18
    150e:	2d 91       	ld	r18, X+
    1510:	3c 91       	ld	r19, X
    1512:	fc 01       	movw	r30, r24
    1514:	31 83       	std	Z+1, r19	; 0x01
    1516:	20 83       	st	Z, r18

00001518 <.LBB85>:
    1518:	ce 01       	movw	r24, r28
    151a:	89 5b       	subi	r24, 0xB9	; 185
    151c:	9f 4f       	sbci	r25, 0xFF	; 255
    151e:	dc 01       	movw	r26, r24
    1520:	8d 91       	ld	r24, X+
    1522:	9c 91       	ld	r25, X

00001524 <.L1^B12>:
    1524:	01 97       	sbiw	r24, 0x01	; 1
    1526:	f1 f7       	brne	.-4      	; 0x1524 <.L1^B12>
    1528:	9e 01       	movw	r18, r28
    152a:	29 5b       	subi	r18, 0xB9	; 185
    152c:	3f 4f       	sbci	r19, 0xFF	; 255
    152e:	f9 01       	movw	r30, r18
    1530:	91 83       	std	Z+1, r25	; 0x01
    1532:	80 83       	st	Z, r24

00001534 <.Loc.367>:
	...

00001536 <.L116>:
            {
                _delay_ms(debounceTime);
                knop_stop_open = 1;
    1536:	81 e0       	ldi	r24, 0x01	; 1
    1538:	90 e0       	ldi	r25, 0x00	; 0
    153a:	98 87       	std	Y+8, r25	; 0x08
    153c:	8f 83       	std	Y+7, r24	; 0x07

0000153e <.L108>:
            }
            if (!(PINK & (1<<knop_stop_d)))
    153e:	86 e0       	ldi	r24, 0x06	; 6
    1540:	91 e0       	ldi	r25, 0x01	; 1
    1542:	dc 01       	movw	r26, r24
    1544:	8c 91       	ld	r24, X

00001546 <.Loc.370>:
    1546:	88 2f       	mov	r24, r24
    1548:	90 e0       	ldi	r25, 0x00	; 0
    154a:	82 70       	andi	r24, 0x02	; 2
    154c:	99 27       	eor	r25, r25

0000154e <.Loc.371>:
    154e:	00 97       	sbiw	r24, 0x00	; 0
    1550:	09 f0       	breq	.+2      	; 0x1554 <L0^A+0x2>

00001552 <L0^A>:
    1552:	0c c1       	rjmp	.+536    	; 0x176c <.L117>
    1554:	9e 01       	movw	r18, r28
    1556:	27 5b       	subi	r18, 0xB7	; 183
    1558:	3f 4f       	sbci	r19, 0xFF	; 255
    155a:	80 e0       	ldi	r24, 0x00	; 0
    155c:	90 e0       	ldi	r25, 0x00	; 0
    155e:	a0 e2       	ldi	r26, 0x20	; 32
    1560:	b1 e4       	ldi	r27, 0x41	; 65
    1562:	f9 01       	movw	r30, r18
    1564:	80 83       	st	Z, r24
    1566:	91 83       	std	Z+1, r25	; 0x01
    1568:	a2 83       	std	Z+2, r26	; 0x02
    156a:	b3 83       	std	Z+3, r27	; 0x03

0000156c <.LBB87>:
	__tmp = ((F_CPU) / 4e3) * __ms;
    156c:	8e 01       	movw	r16, r28
    156e:	03 5b       	subi	r16, 0xB3	; 179
    1570:	1f 4f       	sbci	r17, 0xFF	; 255
    1572:	ce 01       	movw	r24, r28
    1574:	87 5b       	subi	r24, 0xB7	; 183
    1576:	9f 4f       	sbci	r25, 0xFF	; 255
    1578:	20 e0       	ldi	r18, 0x00	; 0
    157a:	30 e0       	ldi	r19, 0x00	; 0
    157c:	4a e7       	ldi	r20, 0x7A	; 122
    157e:	55 e4       	ldi	r21, 0x45	; 69
    1580:	dc 01       	movw	r26, r24
    1582:	6d 91       	ld	r22, X+
    1584:	7d 91       	ld	r23, X+
    1586:	8d 91       	ld	r24, X+
    1588:	9c 91       	ld	r25, X
    158a:	0e 94 14 10 	call	0x2028	; 0x2028 <__mulsf3>
    158e:	c5 55       	subi	r28, 0x55	; 85
    1590:	df 4f       	sbci	r29, 0xFF	; 255
    1592:	68 83       	st	Y, r22
    1594:	79 83       	std	Y+1, r23	; 0x01
    1596:	8a 83       	std	Y+2, r24	; 0x02
    1598:	9b 83       	std	Y+3, r25	; 0x03
    159a:	cb 5a       	subi	r28, 0xAB	; 171
    159c:	d0 40       	sbci	r29, 0x00	; 0
    159e:	c5 55       	subi	r28, 0x55	; 85
    15a0:	df 4f       	sbci	r29, 0xFF	; 255
    15a2:	88 81       	ld	r24, Y
    15a4:	99 81       	ldd	r25, Y+1	; 0x01
    15a6:	aa 81       	ldd	r26, Y+2	; 0x02
    15a8:	bb 81       	ldd	r27, Y+3	; 0x03
    15aa:	cb 5a       	subi	r28, 0xAB	; 171
    15ac:	d0 40       	sbci	r29, 0x00	; 0
    15ae:	f8 01       	movw	r30, r16
    15b0:	80 83       	st	Z, r24
    15b2:	91 83       	std	Z+1, r25	; 0x01
    15b4:	a2 83       	std	Z+2, r26	; 0x02
    15b6:	b3 83       	std	Z+3, r27	; 0x03

000015b8 <.Loc.373>:
	if (__tmp < 1.0)
    15b8:	ce 01       	movw	r24, r28
    15ba:	83 5b       	subi	r24, 0xB3	; 179
    15bc:	9f 4f       	sbci	r25, 0xFF	; 255
    15be:	20 e0       	ldi	r18, 0x00	; 0
    15c0:	30 e0       	ldi	r19, 0x00	; 0
    15c2:	40 e8       	ldi	r20, 0x80	; 128
    15c4:	5f e3       	ldi	r21, 0x3F	; 63
    15c6:	dc 01       	movw	r26, r24
    15c8:	6d 91       	ld	r22, X+
    15ca:	7d 91       	ld	r23, X+
    15cc:	8d 91       	ld	r24, X+
    15ce:	9c 91       	ld	r25, X
    15d0:	0e 94 29 0f 	call	0x1e52	; 0x1e52 <__cmpsf2>
    15d4:	88 23       	and	r24, r24
    15d6:	4c f4       	brge	.+18     	; 0x15ea <.L168>

000015d8 <.Loc.374>:
		__ticks = 1;
    15d8:	ce 01       	movw	r24, r28
    15da:	8f 5a       	subi	r24, 0xAF	; 175
    15dc:	9f 4f       	sbci	r25, 0xFF	; 255
    15de:	21 e0       	ldi	r18, 0x01	; 1
    15e0:	30 e0       	ldi	r19, 0x00	; 0
    15e2:	fc 01       	movw	r30, r24
    15e4:	31 83       	std	Z+1, r19	; 0x01
    15e6:	20 83       	st	Z, r18
    15e8:	a1 c0       	rjmp	.+322    	; 0x172c <.L120>

000015ea <.L168>:
	else if (__tmp > 65535)
    15ea:	ce 01       	movw	r24, r28
    15ec:	83 5b       	subi	r24, 0xB3	; 179
    15ee:	9f 4f       	sbci	r25, 0xFF	; 255
    15f0:	20 e0       	ldi	r18, 0x00	; 0
    15f2:	3f ef       	ldi	r19, 0xFF	; 255
    15f4:	4f e7       	ldi	r20, 0x7F	; 127
    15f6:	57 e4       	ldi	r21, 0x47	; 71
    15f8:	dc 01       	movw	r26, r24
    15fa:	6d 91       	ld	r22, X+
    15fc:	7d 91       	ld	r23, X+
    15fe:	8d 91       	ld	r24, X+
    1600:	9c 91       	ld	r25, X
    1602:	0e 94 0f 10 	call	0x201e	; 0x201e <__gesf2>
    1606:	88 23       	and	r24, r24
    1608:	09 f0       	breq	.+2      	; 0x160c <L0^A>

0000160a <L0^A>:
    160a:	0c f4       	brge	.+2      	; 0x160e <.Loc.376>

0000160c <L0^A>:
    160c:	71 c0       	rjmp	.+226    	; 0x16f0 <.L169>

0000160e <.Loc.376>:
		__ticks = (uint16_t) (__ms * 10.0);
    160e:	ce 01       	movw	r24, r28
    1610:	87 5b       	subi	r24, 0xB7	; 183
    1612:	9f 4f       	sbci	r25, 0xFF	; 255
    1614:	20 e0       	ldi	r18, 0x00	; 0
    1616:	30 e0       	ldi	r19, 0x00	; 0
    1618:	40 e2       	ldi	r20, 0x20	; 32
    161a:	51 e4       	ldi	r21, 0x41	; 65
    161c:	fc 01       	movw	r30, r24
    161e:	60 81       	ld	r22, Z
    1620:	71 81       	ldd	r23, Z+1	; 0x01
    1622:	82 81       	ldd	r24, Z+2	; 0x02
    1624:	93 81       	ldd	r25, Z+3	; 0x03
    1626:	0e 94 14 10 	call	0x2028	; 0x2028 <__mulsf3>
    162a:	c1 55       	subi	r28, 0x51	; 81
    162c:	df 4f       	sbci	r29, 0xFF	; 255
    162e:	68 83       	st	Y, r22
    1630:	79 83       	std	Y+1, r23	; 0x01
    1632:	8a 83       	std	Y+2, r24	; 0x02
    1634:	9b 83       	std	Y+3, r25	; 0x03
    1636:	cf 5a       	subi	r28, 0xAF	; 175
    1638:	d0 40       	sbci	r29, 0x00	; 0
    163a:	c1 55       	subi	r28, 0x51	; 81
    163c:	df 4f       	sbci	r29, 0xFF	; 255
    163e:	88 81       	ld	r24, Y
    1640:	99 81       	ldd	r25, Y+1	; 0x01
    1642:	aa 81       	ldd	r26, Y+2	; 0x02
    1644:	bb 81       	ldd	r27, Y+3	; 0x03
    1646:	cf 5a       	subi	r28, 0xAF	; 175
    1648:	d0 40       	sbci	r29, 0x00	; 0
    164a:	ab 96       	adiw	r28, 0x2b	; 43
    164c:	8c af       	std	Y+60, r24	; 0x3c
    164e:	9d af       	std	Y+61, r25	; 0x3d
    1650:	ae af       	std	Y+62, r26	; 0x3e
    1652:	bf af       	std	Y+63, r27	; 0x3f
    1654:	ab 97       	sbiw	r28, 0x2b	; 43

00001656 <.Loc.377>:
    1656:	8e 01       	movw	r16, r28
    1658:	0f 5a       	subi	r16, 0xAF	; 175
    165a:	1f 4f       	sbci	r17, 0xFF	; 255
    165c:	ab 96       	adiw	r28, 0x2b	; 43
    165e:	6c ad       	ldd	r22, Y+60	; 0x3c
    1660:	7d ad       	ldd	r23, Y+61	; 0x3d
    1662:	8e ad       	ldd	r24, Y+62	; 0x3e
    1664:	9f ad       	ldd	r25, Y+63	; 0x3f
    1666:	ab 97       	sbiw	r28, 0x2b	; 43
    1668:	0e 94 2e 0f 	call	0x1e5c	; 0x1e5c <__fixunssfsi>
    166c:	cd 54       	subi	r28, 0x4D	; 77
    166e:	df 4f       	sbci	r29, 0xFF	; 255
    1670:	68 83       	st	Y, r22
    1672:	79 83       	std	Y+1, r23	; 0x01
    1674:	8a 83       	std	Y+2, r24	; 0x02
    1676:	9b 83       	std	Y+3, r25	; 0x03
    1678:	c3 5b       	subi	r28, 0xB3	; 179
    167a:	d0 40       	sbci	r29, 0x00	; 0
    167c:	cd 54       	subi	r28, 0x4D	; 77
    167e:	df 4f       	sbci	r29, 0xFF	; 255
    1680:	e8 81       	ld	r30, Y
    1682:	f9 81       	ldd	r31, Y+1	; 0x01
    1684:	c3 5b       	subi	r28, 0xB3	; 179
    1686:	d0 40       	sbci	r29, 0x00	; 0
    1688:	d8 01       	movw	r26, r16
    168a:	11 96       	adiw	r26, 0x01	; 1
    168c:	fc 93       	st	X, r31
    168e:	ee 93       	st	-X, r30

00001690 <.Loc.378>:
		while(__ticks)
    1690:	26 c0       	rjmp	.+76     	; 0x16de <.L123>

00001692 <.L124>:
    1692:	ce 01       	movw	r24, r28
    1694:	8d 5a       	subi	r24, 0xAD	; 173
    1696:	9f 4f       	sbci	r25, 0xFF	; 255
    1698:	20 e9       	ldi	r18, 0x90	; 144
    169a:	31 e0       	ldi	r19, 0x01	; 1
    169c:	dc 01       	movw	r26, r24
    169e:	2d 93       	st	X+, r18
    16a0:	3c 93       	st	X, r19

000016a2 <.LBB89>:
    16a2:	ce 01       	movw	r24, r28
    16a4:	8d 5a       	subi	r24, 0xAD	; 173
    16a6:	9f 4f       	sbci	r25, 0xFF	; 255
    16a8:	fc 01       	movw	r30, r24
    16aa:	80 81       	ld	r24, Z
    16ac:	91 81       	ldd	r25, Z+1	; 0x01

000016ae <.L1^B13>:
    16ae:	01 97       	sbiw	r24, 0x01	; 1
    16b0:	f1 f7       	brne	.-4      	; 0x16ae <.L1^B13>
    16b2:	9e 01       	movw	r18, r28
    16b4:	2d 5a       	subi	r18, 0xAD	; 173
    16b6:	3f 4f       	sbci	r19, 0xFF	; 255
    16b8:	d9 01       	movw	r26, r18
    16ba:	8d 93       	st	X+, r24
    16bc:	9c 93       	st	X, r25

000016be <.Loc.380>:
	...

000016c0 <.LBE89>:
			__ticks --;
    16c0:	ce 01       	movw	r24, r28
    16c2:	8f 5a       	subi	r24, 0xAF	; 175
    16c4:	9f 4f       	sbci	r25, 0xFF	; 255
    16c6:	9e 01       	movw	r18, r28
    16c8:	2f 5a       	subi	r18, 0xAF	; 175
    16ca:	3f 4f       	sbci	r19, 0xFF	; 255
    16cc:	f9 01       	movw	r30, r18
    16ce:	20 81       	ld	r18, Z
    16d0:	31 81       	ldd	r19, Z+1	; 0x01
    16d2:	21 50       	subi	r18, 0x01	; 1
    16d4:	31 09       	sbc	r19, r1
    16d6:	dc 01       	movw	r26, r24
    16d8:	11 96       	adiw	r26, 0x01	; 1
    16da:	3c 93       	st	X, r19
    16dc:	2e 93       	st	-X, r18

000016de <.L123>:
		while(__ticks)
    16de:	ce 01       	movw	r24, r28
    16e0:	8f 5a       	subi	r24, 0xAF	; 175
    16e2:	9f 4f       	sbci	r25, 0xFF	; 255
    16e4:	fc 01       	movw	r30, r24
    16e6:	80 81       	ld	r24, Z
    16e8:	91 81       	ldd	r25, Z+1	; 0x01
    16ea:	00 97       	sbiw	r24, 0x00	; 0
    16ec:	91 f6       	brne	.-92     	; 0x1692 <.L124>

000016ee <.Loc.383>:
		return;
    16ee:	3a c0       	rjmp	.+116    	; 0x1764 <.L125>

000016f0 <.L169>:
		__ticks = (uint16_t)__tmp;
    16f0:	8e 01       	movw	r16, r28
    16f2:	0f 5a       	subi	r16, 0xAF	; 175
    16f4:	1f 4f       	sbci	r17, 0xFF	; 255
    16f6:	ce 01       	movw	r24, r28
    16f8:	83 5b       	subi	r24, 0xB3	; 179
    16fa:	9f 4f       	sbci	r25, 0xFF	; 255
    16fc:	dc 01       	movw	r26, r24
    16fe:	6d 91       	ld	r22, X+
    1700:	7d 91       	ld	r23, X+
    1702:	8d 91       	ld	r24, X+
    1704:	9c 91       	ld	r25, X
    1706:	0e 94 2e 0f 	call	0x1e5c	; 0x1e5c <__fixunssfsi>
    170a:	c9 54       	subi	r28, 0x49	; 73
    170c:	df 4f       	sbci	r29, 0xFF	; 255
    170e:	68 83       	st	Y, r22
    1710:	79 83       	std	Y+1, r23	; 0x01
    1712:	8a 83       	std	Y+2, r24	; 0x02
    1714:	9b 83       	std	Y+3, r25	; 0x03
    1716:	c7 5b       	subi	r28, 0xB7	; 183
    1718:	d0 40       	sbci	r29, 0x00	; 0
    171a:	c9 54       	subi	r28, 0x49	; 73
    171c:	df 4f       	sbci	r29, 0xFF	; 255
    171e:	88 81       	ld	r24, Y
    1720:	99 81       	ldd	r25, Y+1	; 0x01
    1722:	c7 5b       	subi	r28, 0xB7	; 183
    1724:	d0 40       	sbci	r29, 0x00	; 0
    1726:	f8 01       	movw	r30, r16
    1728:	91 83       	std	Z+1, r25	; 0x01
    172a:	80 83       	st	Z, r24

0000172c <.L120>:
    172c:	ce 01       	movw	r24, r28
    172e:	8b 5a       	subi	r24, 0xAB	; 171
    1730:	9f 4f       	sbci	r25, 0xFF	; 255
    1732:	9e 01       	movw	r18, r28
    1734:	2f 5a       	subi	r18, 0xAF	; 175
    1736:	3f 4f       	sbci	r19, 0xFF	; 255
    1738:	d9 01       	movw	r26, r18
    173a:	2d 91       	ld	r18, X+
    173c:	3c 91       	ld	r19, X
    173e:	fc 01       	movw	r30, r24
    1740:	31 83       	std	Z+1, r19	; 0x01
    1742:	20 83       	st	Z, r18

00001744 <.LBB91>:
    1744:	ce 01       	movw	r24, r28
    1746:	8b 5a       	subi	r24, 0xAB	; 171
    1748:	9f 4f       	sbci	r25, 0xFF	; 255
    174a:	dc 01       	movw	r26, r24
    174c:	8d 91       	ld	r24, X+
    174e:	9c 91       	ld	r25, X
    1750:	11 97       	sbiw	r26, 0x01	; 1

00001752 <.L1^B14>:
    1752:	01 97       	sbiw	r24, 0x01	; 1
    1754:	f1 f7       	brne	.-4      	; 0x1752 <.L1^B14>
    1756:	9e 01       	movw	r18, r28
    1758:	2b 5a       	subi	r18, 0xAB	; 171
    175a:	3f 4f       	sbci	r19, 0xFF	; 255
    175c:	f9 01       	movw	r30, r18
    175e:	91 83       	std	Z+1, r25	; 0x01
    1760:	80 83       	st	Z, r24

00001762 <.Loc.386>:
	...

00001764 <.L125>:
            {
                _delay_ms(debounceTime);
                knop_brugDicht = 1;
    1764:	81 e0       	ldi	r24, 0x01	; 1
    1766:	90 e0       	ldi	r25, 0x00	; 0
    1768:	9c 83       	std	Y+4, r25	; 0x04
    176a:	8b 83       	std	Y+3, r24	; 0x03

0000176c <.L117>:
            }

            //----Switch statement----//
            switch(situatie)
    176c:	89 85       	ldd	r24, Y+9	; 0x09
    176e:	9a 85       	ldd	r25, Y+10	; 0x0a
    1770:	86 30       	cpi	r24, 0x06	; 6
    1772:	91 05       	cpc	r25, r1
    1774:	09 f4       	brne	.+2      	; 0x1778 <L0^A+0x2>

00001776 <L0^A>:
    1776:	11 c1       	rjmp	.+546    	; 0x199a <.L126>
    1778:	89 85       	ldd	r24, Y+9	; 0x09
    177a:	9a 85       	ldd	r25, Y+10	; 0x0a
    177c:	86 30       	cpi	r24, 0x06	; 6
    177e:	91 05       	cpc	r25, r1
    1780:	11 f0       	breq	.+4      	; 0x1786 <L0^A+0x2>

00001782 <L0^A>:
    1782:	0c f0       	brlt	.+2      	; 0x1786 <L0^A+0x2>

00001784 <L0^A>:
    1784:	23 c1       	rjmp	.+582    	; 0x19cc <.L80>
    1786:	89 85       	ldd	r24, Y+9	; 0x09
    1788:	9a 85       	ldd	r25, Y+10	; 0x0a
    178a:	85 30       	cpi	r24, 0x05	; 5
    178c:	91 05       	cpc	r25, r1
    178e:	09 f4       	brne	.+2      	; 0x1792 <L0^A+0x2>

00001790 <L0^A>:
    1790:	e5 c0       	rjmp	.+458    	; 0x195c <.L128>
    1792:	89 85       	ldd	r24, Y+9	; 0x09
    1794:	9a 85       	ldd	r25, Y+10	; 0x0a
    1796:	85 30       	cpi	r24, 0x05	; 5
    1798:	91 05       	cpc	r25, r1
    179a:	11 f0       	breq	.+4      	; 0x17a0 <L0^A+0x2>

0000179c <L0^A>:
    179c:	0c f0       	brlt	.+2      	; 0x17a0 <L0^A+0x2>

0000179e <L0^A>:
    179e:	16 c1       	rjmp	.+556    	; 0x19cc <.L80>
    17a0:	89 85       	ldd	r24, Y+9	; 0x09
    17a2:	9a 85       	ldd	r25, Y+10	; 0x0a
    17a4:	84 30       	cpi	r24, 0x04	; 4
    17a6:	91 05       	cpc	r25, r1
    17a8:	09 f4       	brne	.+2      	; 0x17ac <L0^A+0x2>

000017aa <L0^A>:
    17aa:	b1 c0       	rjmp	.+354    	; 0x190e <.L129>
    17ac:	89 85       	ldd	r24, Y+9	; 0x09
    17ae:	9a 85       	ldd	r25, Y+10	; 0x0a
    17b0:	84 30       	cpi	r24, 0x04	; 4
    17b2:	91 05       	cpc	r25, r1
    17b4:	11 f0       	breq	.+4      	; 0x17ba <L0^A+0x2>

000017b6 <L0^A>:
    17b6:	0c f0       	brlt	.+2      	; 0x17ba <L0^A+0x2>

000017b8 <L0^A>:
    17b8:	09 c1       	rjmp	.+530    	; 0x19cc <.L80>
    17ba:	89 85       	ldd	r24, Y+9	; 0x09
    17bc:	9a 85       	ldd	r25, Y+10	; 0x0a
    17be:	83 30       	cpi	r24, 0x03	; 3
    17c0:	91 05       	cpc	r25, r1
    17c2:	09 f4       	brne	.+2      	; 0x17c6 <L0^A+0x2>

000017c4 <L0^A>:
    17c4:	81 c0       	rjmp	.+258    	; 0x18c8 <.L130>
    17c6:	89 85       	ldd	r24, Y+9	; 0x09
    17c8:	9a 85       	ldd	r25, Y+10	; 0x0a
    17ca:	83 30       	cpi	r24, 0x03	; 3
    17cc:	91 05       	cpc	r25, r1
    17ce:	11 f0       	breq	.+4      	; 0x17d4 <L0^A+0x2>

000017d0 <L0^A>:
    17d0:	0c f0       	brlt	.+2      	; 0x17d4 <L0^A+0x2>

000017d2 <L0^A>:
    17d2:	fc c0       	rjmp	.+504    	; 0x19cc <.L80>
    17d4:	89 85       	ldd	r24, Y+9	; 0x09
    17d6:	9a 85       	ldd	r25, Y+10	; 0x0a
    17d8:	81 30       	cpi	r24, 0x01	; 1
    17da:	91 05       	cpc	r25, r1
    17dc:	39 f0       	breq	.+14     	; 0x17ec <.L131>
    17de:	89 85       	ldd	r24, Y+9	; 0x09
    17e0:	9a 85       	ldd	r25, Y+10	; 0x0a
    17e2:	82 30       	cpi	r24, 0x02	; 2
    17e4:	91 05       	cpc	r25, r1
    17e6:	09 f4       	brne	.+2      	; 0x17ea <L0^A+0x2>

000017e8 <L0^A>:
    17e8:	50 c0       	rjmp	.+160    	; 0x188a <.L132>
    17ea:	f0 c0       	rjmp	.+480    	; 0x19cc <.L80>

000017ec <.L131>:
            {
                case 1:

                    slagbomen_open(1);
    17ec:	81 e0       	ldi	r24, 0x01	; 1
    17ee:	90 e0       	ldi	r25, 0x00	; 0
    17f0:	0e 94 9e 03 	call	0x73c	; 0x73c <slagbomen_open>

000017f4 <.Loc.390>:
                    lichten_verboden(1);
    17f4:	81 e0       	ldi	r24, 0x01	; 1
    17f6:	90 e0       	ldi	r25, 0x00	; 0
    17f8:	0e 94 3c 04 	call	0x878	; 0x878 <lichten_verboden>

000017fc <.Loc.391>:
                    geel_1_aan(1);
    17fc:	81 e0       	ldi	r24, 0x01	; 1
    17fe:	90 e0       	ldi	r25, 0x00	; 0
    1800:	0e 94 17 05 	call	0xa2e	; 0xa2e <geel_1_aan>

00001804 <.Loc.392>:

                    if (knop_brugOpen == 1)
    1804:	89 81       	ldd	r24, Y+1	; 0x01
    1806:	9a 81       	ldd	r25, Y+2	; 0x02
    1808:	81 30       	cpi	r24, 0x01	; 1
    180a:	91 05       	cpc	r25, r1
    180c:	79 f5       	brne	.+94     	; 0x186c <.L133>

0000180e <.LBB93>:
                    {
                        for (int i = 0; i < 5; i++)       // als delay voor de linker slagbomen
    180e:	1c 86       	std	Y+12, r1	; 0x0c
    1810:	1b 86       	std	Y+11, r1	; 0x0b

00001812 <.Loc.394>:
    1812:	19 c0       	rjmp	.+50     	; 0x1846 <.L134>

00001814 <.L135>:
                        {
                            geel_1_uit(1);
    1814:	81 e0       	ldi	r24, 0x01	; 1
    1816:	90 e0       	ldi	r25, 0x00	; 0
    1818:	0e 94 3c 05 	call	0xa78	; 0xa78 <geel_1_uit>

0000181c <.Loc.396>:
                            alarm_aan(1);
    181c:	81 e0       	ldi	r24, 0x01	; 1
    181e:	90 e0       	ldi	r25, 0x00	; 0
    1820:	0e 94 e2 05 	call	0xbc4	; 0xbc4 <alarm_aan>

00001824 <.Loc.397>:
                            lichten_binnenkort_open(1);
    1824:	81 e0       	ldi	r24, 0x01	; 1
    1826:	90 e0       	ldi	r25, 0x00	; 0
    1828:	0e 94 f3 03 	call	0x7e6	; 0x7e6 <lichten_binnenkort_open>

0000182c <.Loc.398>:
                            knipperlicht_rood(1);
    182c:	81 e0       	ldi	r24, 0x01	; 1
    182e:	90 e0       	ldi	r25, 0x00	; 0
    1830:	0e 94 e4 01 	call	0x3c8	; 0x3c8 <knipperlicht_rood>

00001834 <.Loc.399>:
                            slagbomen_dicht_R(1);
    1834:	81 e0       	ldi	r24, 0x01	; 1
    1836:	90 e0       	ldi	r25, 0x00	; 0
    1838:	0e 94 72 03 	call	0x6e4	; 0x6e4 <slagbomen_dicht_R>

0000183c <.Loc.400>:
                        for (int i = 0; i < 5; i++)       // als delay voor de linker slagbomen
    183c:	8b 85       	ldd	r24, Y+11	; 0x0b
    183e:	9c 85       	ldd	r25, Y+12	; 0x0c
    1840:	01 96       	adiw	r24, 0x01	; 1
    1842:	9c 87       	std	Y+12, r25	; 0x0c
    1844:	8b 87       	std	Y+11, r24	; 0x0b

00001846 <.L134>:
    1846:	8b 85       	ldd	r24, Y+11	; 0x0b
    1848:	9c 85       	ldd	r25, Y+12	; 0x0c
    184a:	84 30       	cpi	r24, 0x04	; 4
    184c:	91 05       	cpc	r25, r1
    184e:	11 f3       	breq	.-60     	; 0x1814 <.L135>
    1850:	0c f3       	brlt	.-62     	; 0x1814 <.L135>

00001852 <.LBE93>:

                        }
                        alarm_uit(1);
    1852:	81 e0       	ldi	r24, 0x01	; 1
    1854:	90 e0       	ldi	r25, 0x00	; 0
    1856:	0e 94 fe 05 	call	0xbfc	; 0xbfc <alarm_uit>

0000185a <.Loc.403>:
                        slagbomen_dicht_L(1);
    185a:	81 e0       	ldi	r24, 0x01	; 1
    185c:	90 e0       	ldi	r25, 0x00	; 0
    185e:	0e 94 88 03 	call	0x710	; 0x710 <slagbomen_dicht_L>

00001862 <.Loc.404>:

                        situatie = 2;
    1862:	82 e0       	ldi	r24, 0x02	; 2
    1864:	90 e0       	ldi	r25, 0x00	; 0
    1866:	9a 87       	std	Y+10, r25	; 0x0a
    1868:	89 87       	std	Y+9, r24	; 0x09

0000186a <.Loc.405>:
                    }
                    else
                    {
                        situatie = 1;
                    }
                    break;
    186a:	b0 c0       	rjmp	.+352    	; 0x19cc <.L80>

0000186c <.L133>:
                    else if (knop_geel_LED == 1)
    186c:	8d 81       	ldd	r24, Y+5	; 0x05
    186e:	9e 81       	ldd	r25, Y+6	; 0x06
    1870:	81 30       	cpi	r24, 0x01	; 1
    1872:	91 05       	cpc	r25, r1
    1874:	29 f4       	brne	.+10     	; 0x1880 <.L137>

00001876 <.Loc.407>:
                        situatie = 6;
    1876:	86 e0       	ldi	r24, 0x06	; 6
    1878:	90 e0       	ldi	r25, 0x00	; 0
    187a:	9a 87       	std	Y+10, r25	; 0x0a
    187c:	89 87       	std	Y+9, r24	; 0x09

0000187e <.Loc.408>:
                    break;
    187e:	a6 c0       	rjmp	.+332    	; 0x19cc <.L80>

00001880 <.L137>:
                        situatie = 1;
    1880:	81 e0       	ldi	r24, 0x01	; 1
    1882:	90 e0       	ldi	r25, 0x00	; 0
    1884:	9a 87       	std	Y+10, r25	; 0x0a
    1886:	89 87       	std	Y+9, r24	; 0x09

00001888 <.Loc.410>:
                    break;
    1888:	a1 c0       	rjmp	.+322    	; 0x19cc <.L80>

0000188a <.L132>:

                case 2:

                    lichten_binnenkort_open(1);
    188a:	81 e0       	ldi	r24, 0x01	; 1
    188c:	90 e0       	ldi	r25, 0x00	; 0
    188e:	0e 94 f3 03 	call	0x7e6	; 0x7e6 <lichten_binnenkort_open>

00001892 <.Loc.412>:
                    knipperlicht_rood(1);
    1892:	81 e0       	ldi	r24, 0x01	; 1
    1894:	90 e0       	ldi	r25, 0x00	; 0
    1896:	0e 94 e4 01 	call	0x3c8	; 0x3c8 <knipperlicht_rood>

0000189a <.Loc.413>:
                    brug_open(1);
    189a:	81 e0       	ldi	r24, 0x01	; 1
    189c:	90 e0       	ldi	r25, 0x00	; 0
    189e:	0e 94 b7 03 	call	0x76e	; 0x76e <brug_open>

000018a2 <.Loc.414>:

                    if (knop_stop_open == 1)
    18a2:	8f 81       	ldd	r24, Y+7	; 0x07
    18a4:	98 85       	ldd	r25, Y+8	; 0x08
    18a6:	81 30       	cpi	r24, 0x01	; 1
    18a8:	91 05       	cpc	r25, r1
    18aa:	49 f4       	brne	.+18     	; 0x18be <.L138>

000018ac <.Loc.415>:
                    {
                        brug_open(0);
    18ac:	80 e0       	ldi	r24, 0x00	; 0
    18ae:	90 e0       	ldi	r25, 0x00	; 0
    18b0:	0e 94 b7 03 	call	0x76e	; 0x76e <brug_open>

000018b4 <.Loc.416>:

                        situatie = 3;
    18b4:	83 e0       	ldi	r24, 0x03	; 3
    18b6:	90 e0       	ldi	r25, 0x00	; 0
    18b8:	9a 87       	std	Y+10, r25	; 0x0a
    18ba:	89 87       	std	Y+9, r24	; 0x09

000018bc <.Loc.417>:
                    }
                    else
                    {
                        situatie = 2;
                    }
                    break;
    18bc:	87 c0       	rjmp	.+270    	; 0x19cc <.L80>

000018be <.L138>:
                        situatie = 2;
    18be:	82 e0       	ldi	r24, 0x02	; 2
    18c0:	90 e0       	ldi	r25, 0x00	; 0
    18c2:	9a 87       	std	Y+10, r25	; 0x0a
    18c4:	89 87       	std	Y+9, r24	; 0x09

000018c6 <.Loc.419>:
                    break;
    18c6:	82 c0       	rjmp	.+260    	; 0x19cc <.L80>

000018c8 <.L130>:

                case 3:


                    lichten_doorvaart_R(1);
    18c8:	81 e0       	ldi	r24, 0x01	; 1
    18ca:	90 e0       	ldi	r25, 0x00	; 0
    18cc:	0e 94 85 04 	call	0x90a	; 0x90a <lichten_doorvaart_R>

000018d0 <.Loc.421>:
                    knipperlicht_rood_uit(1);
    18d0:	81 e0       	ldi	r24, 0x01	; 1
    18d2:	90 e0       	ldi	r25, 0x00	; 0
    18d4:	0e 94 4d 03 	call	0x69a	; 0x69a <knipperlicht_rood_uit>

000018d8 <.Loc.422>:

                    lichten_doorvaart_L(1);
    18d8:	81 e0       	ldi	r24, 0x01	; 1
    18da:	90 e0       	ldi	r25, 0x00	; 0
    18dc:	0e 94 ce 04 	call	0x99c	; 0x99c <lichten_doorvaart_L>

000018e0 <.Loc.423>:
                    knipperlicht_rood_uit(1);
    18e0:	81 e0       	ldi	r24, 0x01	; 1
    18e2:	90 e0       	ldi	r25, 0x00	; 0
    18e4:	0e 94 4d 03 	call	0x69a	; 0x69a <knipperlicht_rood_uit>

000018e8 <.Loc.424>:

                    lichten_verboden(1);
    18e8:	81 e0       	ldi	r24, 0x01	; 1
    18ea:	90 e0       	ldi	r25, 0x00	; 0
    18ec:	0e 94 3c 04 	call	0x878	; 0x878 <lichten_verboden>

000018f0 <.Loc.425>:
                    if (knop_brugDicht == 1)
    18f0:	8b 81       	ldd	r24, Y+3	; 0x03
    18f2:	9c 81       	ldd	r25, Y+4	; 0x04
    18f4:	81 30       	cpi	r24, 0x01	; 1
    18f6:	91 05       	cpc	r25, r1
    18f8:	29 f4       	brne	.+10     	; 0x1904 <.L140>

000018fa <.Loc.426>:
                    {
                        situatie = 4;
    18fa:	84 e0       	ldi	r24, 0x04	; 4
    18fc:	90 e0       	ldi	r25, 0x00	; 0
    18fe:	9a 87       	std	Y+10, r25	; 0x0a
    1900:	89 87       	std	Y+9, r24	; 0x09

00001902 <.Loc.427>:
                    }
                    else
                    {
                        situatie = 3;
                    }
                    break;
    1902:	64 c0       	rjmp	.+200    	; 0x19cc <.L80>

00001904 <.L140>:
                        situatie = 3;
    1904:	83 e0       	ldi	r24, 0x03	; 3
    1906:	90 e0       	ldi	r25, 0x00	; 0
    1908:	9a 87       	std	Y+10, r25	; 0x0a
    190a:	89 87       	std	Y+9, r24	; 0x09

0000190c <.Loc.429>:
                    break;
    190c:	5f c0       	rjmp	.+190    	; 0x19cc <.L80>

0000190e <.L129>:

                case 4:

                    alarm_aan(1);       // alarm blijft waarschijnlijk te lang aan
    190e:	81 e0       	ldi	r24, 0x01	; 1
    1910:	90 e0       	ldi	r25, 0x00	; 0
    1912:	0e 94 e2 05 	call	0xbc4	; 0xbc4 <alarm_aan>

00001916 <.Loc.431>:
                    lichten_verboden(1);
    1916:	81 e0       	ldi	r24, 0x01	; 1
    1918:	90 e0       	ldi	r25, 0x00	; 0
    191a:	0e 94 3c 04 	call	0x878	; 0x878 <lichten_verboden>

0000191e <.Loc.432>:
                    knipperlicht_rood(1);
    191e:	81 e0       	ldi	r24, 0x01	; 1
    1920:	90 e0       	ldi	r25, 0x00	; 0
    1922:	0e 94 e4 01 	call	0x3c8	; 0x3c8 <knipperlicht_rood>

00001926 <.Loc.433>:
                    brug_dicht(1);
    1926:	81 e0       	ldi	r24, 0x01	; 1
    1928:	90 e0       	ldi	r25, 0x00	; 0
    192a:	0e 94 d5 03 	call	0x7aa	; 0x7aa <brug_dicht>

0000192e <.Loc.434>:

                    if (knop_stop_dicht == 1)
    192e:	8f 85       	ldd	r24, Y+15	; 0x0f
    1930:	98 89       	ldd	r25, Y+16	; 0x10
    1932:	81 30       	cpi	r24, 0x01	; 1
    1934:	91 05       	cpc	r25, r1
    1936:	69 f4       	brne	.+26     	; 0x1952 <.L142>

00001938 <.Loc.435>:
                    {
                        brug_dicht(0);
    1938:	80 e0       	ldi	r24, 0x00	; 0
    193a:	90 e0       	ldi	r25, 0x00	; 0
    193c:	0e 94 d5 03 	call	0x7aa	; 0x7aa <brug_dicht>

00001940 <.Loc.436>:
                        alarm_uit(1);
    1940:	81 e0       	ldi	r24, 0x01	; 1
    1942:	90 e0       	ldi	r25, 0x00	; 0
    1944:	0e 94 fe 05 	call	0xbfc	; 0xbfc <alarm_uit>

00001948 <.Loc.437>:

                        situatie = 5;
    1948:	85 e0       	ldi	r24, 0x05	; 5
    194a:	90 e0       	ldi	r25, 0x00	; 0
    194c:	9a 87       	std	Y+10, r25	; 0x0a
    194e:	89 87       	std	Y+9, r24	; 0x09

00001950 <.Loc.438>:
                    }
                    else
                    {
                        situatie = 4;
                    }
                    break;
    1950:	3d c0       	rjmp	.+122    	; 0x19cc <.L80>

00001952 <.L142>:
                        situatie = 4;
    1952:	84 e0       	ldi	r24, 0x04	; 4
    1954:	90 e0       	ldi	r25, 0x00	; 0
    1956:	9a 87       	std	Y+10, r25	; 0x0a
    1958:	89 87       	std	Y+9, r24	; 0x09

0000195a <.Loc.440>:
                    break;
    195a:	38 c0       	rjmp	.+112    	; 0x19cc <.L80>

0000195c <.L128>:

                case 5:

                    slagbomen_open(1);
    195c:	81 e0       	ldi	r24, 0x01	; 1
    195e:	90 e0       	ldi	r25, 0x00	; 0
    1960:	0e 94 9e 03 	call	0x73c	; 0x73c <slagbomen_open>

00001964 <.Loc.442>:
                    knipperlicht_rood_uit(1);
    1964:	81 e0       	ldi	r24, 0x01	; 1
    1966:	90 e0       	ldi	r25, 0x00	; 0
    1968:	0e 94 4d 03 	call	0x69a	; 0x69a <knipperlicht_rood_uit>

0000196c <.Loc.443>:
                    lichten_verboden(1);
    196c:	81 e0       	ldi	r24, 0x01	; 1
    196e:	90 e0       	ldi	r25, 0x00	; 0
    1970:	0e 94 3c 04 	call	0x878	; 0x878 <lichten_verboden>

00001974 <.Loc.444>:
                    geel_1_aan(1);
    1974:	81 e0       	ldi	r24, 0x01	; 1
    1976:	90 e0       	ldi	r25, 0x00	; 0
    1978:	0e 94 17 05 	call	0xa2e	; 0xa2e <geel_1_aan>

0000197c <.Loc.445>:

                    if (knop_geel_LED == 1)
    197c:	8d 81       	ldd	r24, Y+5	; 0x05
    197e:	9e 81       	ldd	r25, Y+6	; 0x06
    1980:	81 30       	cpi	r24, 0x01	; 1
    1982:	91 05       	cpc	r25, r1
    1984:	29 f4       	brne	.+10     	; 0x1990 <.L144>

00001986 <.Loc.446>:
                    {
                        situatie = 6;
    1986:	86 e0       	ldi	r24, 0x06	; 6
    1988:	90 e0       	ldi	r25, 0x00	; 0
    198a:	9a 87       	std	Y+10, r25	; 0x0a
    198c:	89 87       	std	Y+9, r24	; 0x09

0000198e <.Loc.447>:
                    else
                    {
                        situatie = 5;
                    }

                    break;
    198e:	1e c0       	rjmp	.+60     	; 0x19cc <.L80>

00001990 <.L144>:
                        situatie = 5;
    1990:	85 e0       	ldi	r24, 0x05	; 5
    1992:	90 e0       	ldi	r25, 0x00	; 0
    1994:	9a 87       	std	Y+10, r25	; 0x0a
    1996:	89 87       	std	Y+9, r24	; 0x09

00001998 <.Loc.449>:
                    break;
    1998:	19 c0       	rjmp	.+50     	; 0x19cc <.L80>

0000199a <.L126>:

                case 6:


                    geel_2_aan(1);
    199a:	81 e0       	ldi	r24, 0x01	; 1
    199c:	90 e0       	ldi	r25, 0x00	; 0
    199e:	0e 94 61 05 	call	0xac2	; 0xac2 <geel_2_aan>

000019a2 <.Loc.451>:
                    knop_geel_LED = 0;
    19a2:	1e 82       	std	Y+6, r1	; 0x06
    19a4:	1d 82       	std	Y+5, r1	; 0x05

000019a6 <.Loc.452>:

                    if (knop_geel_LED == 1)
    19a6:	8d 81       	ldd	r24, Y+5	; 0x05
    19a8:	9e 81       	ldd	r25, Y+6	; 0x06
    19aa:	81 30       	cpi	r24, 0x01	; 1
    19ac:	91 05       	cpc	r25, r1
    19ae:	49 f4       	brne	.+18     	; 0x19c2 <.L146>

000019b0 <.Loc.453>:
                    {
                        geel_2_uit(1);
    19b0:	81 e0       	ldi	r24, 0x01	; 1
    19b2:	90 e0       	ldi	r25, 0x00	; 0
    19b4:	0e 94 bd 05 	call	0xb7a	; 0xb7a <geel_2_uit>

000019b8 <.Loc.454>:
                        situatie = 1;
    19b8:	81 e0       	ldi	r24, 0x01	; 1
    19ba:	90 e0       	ldi	r25, 0x00	; 0
    19bc:	9a 87       	std	Y+10, r25	; 0x0a
    19be:	89 87       	std	Y+9, r24	; 0x09

000019c0 <.Loc.455>:
                    }
                    else
                    {
                        situatie = 6;
                    }
                    break;
    19c0:	04 c0       	rjmp	.+8      	; 0x19ca <.L170>

000019c2 <.L146>:
                        situatie = 6;
    19c2:	86 e0       	ldi	r24, 0x06	; 6
    19c4:	90 e0       	ldi	r25, 0x00	; 0
    19c6:	9a 87       	std	Y+10, r25	; 0x0a
    19c8:	89 87       	std	Y+9, r24	; 0x09

000019ca <.L170>:
	...

000019cc <.L80>:
        while(bediening_aan != 0)
    19cc:	8d 85       	ldd	r24, Y+13	; 0x0d
    19ce:	9e 85       	ldd	r25, Y+14	; 0x0e
    19d0:	00 97       	sbiw	r24, 0x00	; 0
    19d2:	09 f0       	breq	.+2      	; 0x19d6 <.LBE62>

000019d4 <L0^A>:
    19d4:	78 ca       	rjmp	.-2832   	; 0xec6 <.L148>

000019d6 <.LBE62>:
    {
    19d6:	5d ca       	rjmp	.-2886   	; 0xe92 <.L149>

000019d8 <__vector_20>:
#define RESET_VALUE	(65636ul-TIME_VALUE)
#define STOP_VALUE	(TIME_VALUE*0.075)
#define RANGE		(TIME_VALUE*0.025)      // Range of the rotation

ISR(TIMER1_OVF_vect)
{
    19d8:	1f 92       	push	r1
    19da:	0f 92       	push	r0
    19dc:	0f b6       	in	r0, 0x3f	; 63
    19de:	0f 92       	push	r0
    19e0:	11 24       	eor	r1, r1
    19e2:	0b b6       	in	r0, 0x3b	; 59
    19e4:	0f 92       	push	r0
    19e6:	2f 93       	push	r18
    19e8:	3f 93       	push	r19
    19ea:	8f 93       	push	r24
    19ec:	9f 93       	push	r25
    19ee:	ef 93       	push	r30
    19f0:	ff 93       	push	r31
    19f2:	cf 93       	push	r28
    19f4:	df 93       	push	r29
    19f6:	cd b7       	in	r28, 0x3d	; 61
    19f8:	de b7       	in	r29, 0x3e	; 62

000019fa <.Loc.1>:
	TCNT1 = RESET_VALUE;
    19fa:	84 e8       	ldi	r24, 0x84	; 132
    19fc:	90 e0       	ldi	r25, 0x00	; 0

000019fe <.Loc.2>:
    19fe:	24 e2       	ldi	r18, 0x24	; 36
    1a00:	34 e6       	ldi	r19, 0x64	; 100
    1a02:	fc 01       	movw	r30, r24
    1a04:	31 83       	std	Z+1, r19	; 0x01
    1a06:	20 83       	st	Z, r18

00001a08 <.Loc.3>:

	PORT_1 |= (1<<PIN_1);
    1a08:	8e e2       	ldi	r24, 0x2E	; 46
    1a0a:	90 e0       	ldi	r25, 0x00	; 0
    1a0c:	fc 01       	movw	r30, r24
    1a0e:	20 81       	ld	r18, Z
    1a10:	8e e2       	ldi	r24, 0x2E	; 46
    1a12:	90 e0       	ldi	r25, 0x00	; 0

00001a14 <.Loc.4>:
    1a14:	28 60       	ori	r18, 0x08	; 8
    1a16:	fc 01       	movw	r30, r24
    1a18:	20 83       	st	Z, r18

00001a1a <.Loc.5>:
	PORT_2 |= (1<<PIN_2);
    1a1a:	82 e0       	ldi	r24, 0x02	; 2
    1a1c:	91 e0       	ldi	r25, 0x01	; 1
    1a1e:	fc 01       	movw	r30, r24
    1a20:	20 81       	ld	r18, Z
    1a22:	82 e0       	ldi	r24, 0x02	; 2
    1a24:	91 e0       	ldi	r25, 0x01	; 1

00001a26 <.Loc.6>:
    1a26:	28 60       	ori	r18, 0x08	; 8
    1a28:	fc 01       	movw	r30, r24
    1a2a:	20 83       	st	Z, r18

00001a2c <.Loc.7>:
}
    1a2c:	00 00       	nop
    1a2e:	df 91       	pop	r29
    1a30:	cf 91       	pop	r28
    1a32:	ff 91       	pop	r31
    1a34:	ef 91       	pop	r30
    1a36:	9f 91       	pop	r25
    1a38:	8f 91       	pop	r24
    1a3a:	3f 91       	pop	r19
    1a3c:	2f 91       	pop	r18
    1a3e:	0f 90       	pop	r0
    1a40:	0b be       	out	0x3b, r0	; 59
    1a42:	0f 90       	pop	r0
    1a44:	0f be       	out	0x3f, r0	; 63
    1a46:	0f 90       	pop	r0
    1a48:	1f 90       	pop	r1
    1a4a:	18 95       	reti

00001a4c <__vector_17>:

ISR(TIMER1_COMPA_vect)
{
    1a4c:	1f 92       	push	r1
    1a4e:	0f 92       	push	r0
    1a50:	0f b6       	in	r0, 0x3f	; 63
    1a52:	0f 92       	push	r0
    1a54:	11 24       	eor	r1, r1
    1a56:	0b b6       	in	r0, 0x3b	; 59
    1a58:	0f 92       	push	r0
    1a5a:	2f 93       	push	r18
    1a5c:	8f 93       	push	r24
    1a5e:	9f 93       	push	r25
    1a60:	ef 93       	push	r30
    1a62:	ff 93       	push	r31
    1a64:	cf 93       	push	r28
    1a66:	df 93       	push	r29
    1a68:	cd b7       	in	r28, 0x3d	; 61
    1a6a:	de b7       	in	r29, 0x3e	; 62

00001a6c <.Loc.9>:
	PORT_1 &= ~(1<<PIN_1);
    1a6c:	8e e2       	ldi	r24, 0x2E	; 46
    1a6e:	90 e0       	ldi	r25, 0x00	; 0
    1a70:	fc 01       	movw	r30, r24
    1a72:	20 81       	ld	r18, Z

00001a74 <.Loc.10>:
    1a74:	8e e2       	ldi	r24, 0x2E	; 46
    1a76:	90 e0       	ldi	r25, 0x00	; 0

00001a78 <.Loc.11>:
    1a78:	27 7f       	andi	r18, 0xF7	; 247
    1a7a:	fc 01       	movw	r30, r24
    1a7c:	20 83       	st	Z, r18

00001a7e <.Loc.12>:
}
    1a7e:	00 00       	nop
    1a80:	df 91       	pop	r29
    1a82:	cf 91       	pop	r28
    1a84:	ff 91       	pop	r31
    1a86:	ef 91       	pop	r30
    1a88:	9f 91       	pop	r25
    1a8a:	8f 91       	pop	r24
    1a8c:	2f 91       	pop	r18
    1a8e:	0f 90       	pop	r0
    1a90:	0b be       	out	0x3b, r0	; 59
    1a92:	0f 90       	pop	r0
    1a94:	0f be       	out	0x3f, r0	; 63
    1a96:	0f 90       	pop	r0
    1a98:	1f 90       	pop	r1
    1a9a:	18 95       	reti

00001a9c <__vector_18>:

ISR(TIMER1_COMPB_vect)
{
    1a9c:	1f 92       	push	r1
    1a9e:	0f 92       	push	r0
    1aa0:	0f b6       	in	r0, 0x3f	; 63
    1aa2:	0f 92       	push	r0
    1aa4:	11 24       	eor	r1, r1
    1aa6:	0b b6       	in	r0, 0x3b	; 59
    1aa8:	0f 92       	push	r0
    1aaa:	2f 93       	push	r18
    1aac:	8f 93       	push	r24
    1aae:	9f 93       	push	r25
    1ab0:	ef 93       	push	r30
    1ab2:	ff 93       	push	r31
    1ab4:	cf 93       	push	r28
    1ab6:	df 93       	push	r29
    1ab8:	cd b7       	in	r28, 0x3d	; 61
    1aba:	de b7       	in	r29, 0x3e	; 62

00001abc <.Loc.14>:
	PORT_2 &= ~(1<<PIN_2);
    1abc:	82 e0       	ldi	r24, 0x02	; 2
    1abe:	91 e0       	ldi	r25, 0x01	; 1
    1ac0:	fc 01       	movw	r30, r24
    1ac2:	20 81       	ld	r18, Z

00001ac4 <.Loc.15>:
    1ac4:	82 e0       	ldi	r24, 0x02	; 2
    1ac6:	91 e0       	ldi	r25, 0x01	; 1

00001ac8 <.Loc.16>:
    1ac8:	27 7f       	andi	r18, 0xF7	; 247
    1aca:	fc 01       	movw	r30, r24
    1acc:	20 83       	st	Z, r18

00001ace <.Loc.17>:
}
    1ace:	00 00       	nop
    1ad0:	df 91       	pop	r29
    1ad2:	cf 91       	pop	r28
    1ad4:	ff 91       	pop	r31
    1ad6:	ef 91       	pop	r30
    1ad8:	9f 91       	pop	r25
    1ada:	8f 91       	pop	r24
    1adc:	2f 91       	pop	r18
    1ade:	0f 90       	pop	r0
    1ae0:	0b be       	out	0x3b, r0	; 59
    1ae2:	0f 90       	pop	r0
    1ae4:	0f be       	out	0x3f, r0	; 63
    1ae6:	0f 90       	pop	r0
    1ae8:	1f 90       	pop	r1
    1aea:	18 95       	reti

00001aec <init_servo>:

void init_servo(void)
{
    1aec:	cf 93       	push	r28
    1aee:	df 93       	push	r29
    1af0:	cd b7       	in	r28, 0x3d	; 61
    1af2:	de b7       	in	r29, 0x3e	; 62

00001af4 <.Loc.19>:
	// Config pins as output
	DDR_1 |= (1<<PIN_1);
    1af4:	8d e2       	ldi	r24, 0x2D	; 45
    1af6:	90 e0       	ldi	r25, 0x00	; 0
    1af8:	fc 01       	movw	r30, r24
    1afa:	20 81       	ld	r18, Z
    1afc:	8d e2       	ldi	r24, 0x2D	; 45
    1afe:	90 e0       	ldi	r25, 0x00	; 0

00001b00 <.Loc.20>:
    1b00:	28 60       	ori	r18, 0x08	; 8
    1b02:	fc 01       	movw	r30, r24
    1b04:	20 83       	st	Z, r18

00001b06 <.Loc.21>:
	DDR_2 |= (1<<PIN_2);
    1b06:	81 e0       	ldi	r24, 0x01	; 1
    1b08:	91 e0       	ldi	r25, 0x01	; 1
    1b0a:	fc 01       	movw	r30, r24
    1b0c:	20 81       	ld	r18, Z
    1b0e:	81 e0       	ldi	r24, 0x01	; 1
    1b10:	91 e0       	ldi	r25, 0x01	; 1

00001b12 <.Loc.22>:
    1b12:	28 60       	ori	r18, 0x08	; 8
    1b14:	fc 01       	movw	r30, r24
    1b16:	20 83       	st	Z, r18

00001b18 <.Loc.23>:

	// Use mode 0, clkdiv = 8
	TCCR1A = 0;
    1b18:	80 e8       	ldi	r24, 0x80	; 128
    1b1a:	90 e0       	ldi	r25, 0x00	; 0

00001b1c <.Loc.24>:
    1b1c:	fc 01       	movw	r30, r24
    1b1e:	10 82       	st	Z, r1

00001b20 <.Loc.25>:
	TCCR1B = (0<<CS12) | (1<<CS11) | (0<<CS10);
    1b20:	81 e8       	ldi	r24, 0x81	; 129
    1b22:	90 e0       	ldi	r25, 0x00	; 0

00001b24 <.Loc.26>:
    1b24:	22 e0       	ldi	r18, 0x02	; 2
    1b26:	fc 01       	movw	r30, r24
    1b28:	20 83       	st	Z, r18

00001b2a <.Loc.27>:
	// Interrupts on OCA, OCB and OVF
	TIMSK1 = (1<<OCIE1B) | (1<<OCIE1A) | (1<<TOIE1);
    1b2a:	8f e6       	ldi	r24, 0x6F	; 111
    1b2c:	90 e0       	ldi	r25, 0x00	; 0

00001b2e <.Loc.28>:
    1b2e:	27 e0       	ldi	r18, 0x07	; 7
    1b30:	fc 01       	movw	r30, r24
    1b32:	20 83       	st	Z, r18

00001b34 <.Loc.29>:

	TCNT1 = RESET_VALUE;
    1b34:	84 e8       	ldi	r24, 0x84	; 132
    1b36:	90 e0       	ldi	r25, 0x00	; 0

00001b38 <.Loc.30>:
    1b38:	24 e2       	ldi	r18, 0x24	; 36
    1b3a:	34 e6       	ldi	r19, 0x64	; 100
    1b3c:	fc 01       	movw	r30, r24
    1b3e:	31 83       	std	Z+1, r19	; 0x01
    1b40:	20 83       	st	Z, r18

00001b42 <.Loc.31>:

	servo1_set_percentage(0);
    1b42:	80 e0       	ldi	r24, 0x00	; 0
    1b44:	0e 94 ac 0d 	call	0x1b58	; 0x1b58 <servo1_set_percentage>

00001b48 <.Loc.32>:
	servo2_set_percentage(0);
    1b48:	80 e0       	ldi	r24, 0x00	; 0
    1b4a:	0e 94 20 0e 	call	0x1c40	; 0x1c40 <servo2_set_percentage>

00001b4e <.Loc.33>:

	sei();
    1b4e:	78 94       	sei

00001b50 <.Loc.34>:
}
    1b50:	00 00       	nop
    1b52:	df 91       	pop	r29
    1b54:	cf 91       	pop	r28
    1b56:	08 95       	ret

00001b58 <servo1_set_percentage>:

void servo1_set_percentage(signed char percentage)
{
    1b58:	0f 93       	push	r16
    1b5a:	1f 93       	push	r17
    1b5c:	cf 93       	push	r28
    1b5e:	df 93       	push	r29
    1b60:	cd b7       	in	r28, 0x3d	; 61
    1b62:	de b7       	in	r29, 0x3e	; 62
    1b64:	6d 97       	sbiw	r28, 0x1d	; 29
    1b66:	0f b6       	in	r0, 0x3f	; 63
    1b68:	f8 94       	cli
    1b6a:	de bf       	out	0x3e, r29	; 62
    1b6c:	0f be       	out	0x3f, r0	; 63
    1b6e:	cd bf       	out	0x3d, r28	; 61
    1b70:	89 83       	std	Y+1, r24	; 0x01

00001b72 <.Loc.36>:
	if (percentage >= -100 && percentage <= 100)
    1b72:	89 81       	ldd	r24, Y+1	; 0x01
    1b74:	8c 39       	cpi	r24, 0x9C	; 156
    1b76:	0c f4       	brge	.+2      	; 0x1b7a <.Loc.37>

00001b78 <L0^A>:
    1b78:	57 c0       	rjmp	.+174    	; 0x1c28 <.L7>

00001b7a <.Loc.37>:
    1b7a:	89 81       	ldd	r24, Y+1	; 0x01
    1b7c:	84 36       	cpi	r24, 0x64	; 100
    1b7e:	11 f0       	breq	.+4      	; 0x1b84 <.Loc.38>

00001b80 <L0^A>:
    1b80:	0c f0       	brlt	.+2      	; 0x1b84 <.Loc.38>

00001b82 <L0^A>:
    1b82:	52 c0       	rjmp	.+164    	; 0x1c28 <.L7>

00001b84 <.Loc.38>:
	{
		OCR1A = RESET_VALUE+STOP_VALUE+(RANGE/100*percentage);
    1b84:	89 81       	ldd	r24, Y+1	; 0x01
    1b86:	28 2f       	mov	r18, r24
    1b88:	88 0f       	add	r24, r24
    1b8a:	33 0b       	sbc	r19, r19
    1b8c:	44 0b       	sbc	r20, r20
    1b8e:	55 0b       	sbc	r21, r21
    1b90:	2e 87       	std	Y+14, r18	; 0x0e
    1b92:	3f 87       	std	Y+15, r19	; 0x0f
    1b94:	48 8b       	std	Y+16, r20	; 0x10
    1b96:	59 8b       	std	Y+17, r21	; 0x11
    1b98:	6e 85       	ldd	r22, Y+14	; 0x0e
    1b9a:	7f 85       	ldd	r23, Y+15	; 0x0f
    1b9c:	88 89       	ldd	r24, Y+16	; 0x10
    1b9e:	99 89       	ldd	r25, Y+17	; 0x11
    1ba0:	0e 94 5f 0f 	call	0x1ebe	; 0x1ebe <__floatsisf>
    1ba4:	6a 83       	std	Y+2, r22	; 0x02
    1ba6:	7b 83       	std	Y+3, r23	; 0x03
    1ba8:	8c 83       	std	Y+4, r24	; 0x04
    1baa:	9d 83       	std	Y+5, r25	; 0x05
    1bac:	20 e0       	ldi	r18, 0x00	; 0
    1bae:	30 e0       	ldi	r19, 0x00	; 0
    1bb0:	40 e2       	ldi	r20, 0x20	; 32
    1bb2:	51 e4       	ldi	r21, 0x41	; 65
    1bb4:	6a 81       	ldd	r22, Y+2	; 0x02
    1bb6:	7b 81       	ldd	r23, Y+3	; 0x03
    1bb8:	8c 81       	ldd	r24, Y+4	; 0x04
    1bba:	9d 81       	ldd	r25, Y+5	; 0x05
    1bbc:	0e 94 14 10 	call	0x2028	; 0x2028 <__mulsf3>
    1bc0:	6a 8b       	std	Y+18, r22	; 0x12
    1bc2:	7b 8b       	std	Y+19, r23	; 0x13
    1bc4:	8c 8b       	std	Y+20, r24	; 0x14
    1bc6:	9d 8b       	std	Y+21, r25	; 0x15
    1bc8:	8a 89       	ldd	r24, Y+18	; 0x12
    1bca:	9b 89       	ldd	r25, Y+19	; 0x13
    1bcc:	ac 89       	ldd	r26, Y+20	; 0x14
    1bce:	bd 89       	ldd	r27, Y+21	; 0x15
    1bd0:	8e 83       	std	Y+6, r24	; 0x06
    1bd2:	9f 83       	std	Y+7, r25	; 0x07
    1bd4:	a8 87       	std	Y+8, r26	; 0x08
    1bd6:	b9 87       	std	Y+9, r27	; 0x09

00001bd8 <.Loc.39>:
    1bd8:	20 e0       	ldi	r18, 0x00	; 0
    1bda:	38 eb       	ldi	r19, 0xB8	; 184
    1bdc:	4f ed       	ldi	r20, 0xDF	; 223
    1bde:	56 e4       	ldi	r21, 0x46	; 70
    1be0:	6e 81       	ldd	r22, Y+6	; 0x06
    1be2:	7f 81       	ldd	r23, Y+7	; 0x07
    1be4:	88 85       	ldd	r24, Y+8	; 0x08
    1be6:	99 85       	ldd	r25, Y+9	; 0x09
    1be8:	0e 94 bd 0e 	call	0x1d7a	; 0x1d7a <__addsf3>
    1bec:	6e 8b       	std	Y+22, r22	; 0x16
    1bee:	7f 8b       	std	Y+23, r23	; 0x17
    1bf0:	88 8f       	std	Y+24, r24	; 0x18
    1bf2:	99 8f       	std	Y+25, r25	; 0x19
    1bf4:	2e 89       	ldd	r18, Y+22	; 0x16
    1bf6:	3f 89       	ldd	r19, Y+23	; 0x17
    1bf8:	48 8d       	ldd	r20, Y+24	; 0x18
    1bfa:	59 8d       	ldd	r21, Y+25	; 0x19
    1bfc:	2a 87       	std	Y+10, r18	; 0x0a
    1bfe:	3b 87       	std	Y+11, r19	; 0x0b
    1c00:	4c 87       	std	Y+12, r20	; 0x0c
    1c02:	5d 87       	std	Y+13, r21	; 0x0d

00001c04 <.Loc.40>:
    1c04:	08 e8       	ldi	r16, 0x88	; 136
    1c06:	10 e0       	ldi	r17, 0x00	; 0

00001c08 <.Loc.41>:
    1c08:	6a 85       	ldd	r22, Y+10	; 0x0a
    1c0a:	7b 85       	ldd	r23, Y+11	; 0x0b
    1c0c:	8c 85       	ldd	r24, Y+12	; 0x0c
    1c0e:	9d 85       	ldd	r25, Y+13	; 0x0d
    1c10:	0e 94 2e 0f 	call	0x1e5c	; 0x1e5c <__fixunssfsi>
    1c14:	6a 8f       	std	Y+26, r22	; 0x1a
    1c16:	7b 8f       	std	Y+27, r23	; 0x1b
    1c18:	8c 8f       	std	Y+28, r24	; 0x1c
    1c1a:	9d 8f       	std	Y+29, r25	; 0x1d
    1c1c:	8a 8d       	ldd	r24, Y+26	; 0x1a
    1c1e:	9b 8d       	ldd	r25, Y+27	; 0x1b
    1c20:	d8 01       	movw	r26, r16
    1c22:	11 96       	adiw	r26, 0x01	; 1
    1c24:	9c 93       	st	X, r25
    1c26:	8e 93       	st	-X, r24

00001c28 <.L7>:
	}
}
    1c28:	00 00       	nop
    1c2a:	6d 96       	adiw	r28, 0x1d	; 29
    1c2c:	0f b6       	in	r0, 0x3f	; 63
    1c2e:	f8 94       	cli
    1c30:	de bf       	out	0x3e, r29	; 62
    1c32:	0f be       	out	0x3f, r0	; 63
    1c34:	cd bf       	out	0x3d, r28	; 61
    1c36:	df 91       	pop	r29
    1c38:	cf 91       	pop	r28
    1c3a:	1f 91       	pop	r17
    1c3c:	0f 91       	pop	r16
    1c3e:	08 95       	ret

00001c40 <servo2_set_percentage>:

void servo2_set_percentage(signed char percentage)
{
    1c40:	0f 93       	push	r16
    1c42:	1f 93       	push	r17
    1c44:	cf 93       	push	r28
    1c46:	df 93       	push	r29
    1c48:	cd b7       	in	r28, 0x3d	; 61
    1c4a:	de b7       	in	r29, 0x3e	; 62
    1c4c:	6d 97       	sbiw	r28, 0x1d	; 29
    1c4e:	0f b6       	in	r0, 0x3f	; 63
    1c50:	f8 94       	cli
    1c52:	de bf       	out	0x3e, r29	; 62
    1c54:	0f be       	out	0x3f, r0	; 63
    1c56:	cd bf       	out	0x3d, r28	; 61
    1c58:	89 83       	std	Y+1, r24	; 0x01

00001c5a <.Loc.44>:
	if (percentage >= -100 && percentage <= 100)
    1c5a:	89 81       	ldd	r24, Y+1	; 0x01
    1c5c:	8c 39       	cpi	r24, 0x9C	; 156
    1c5e:	0c f4       	brge	.+2      	; 0x1c62 <.Loc.45>

00001c60 <L0^A>:
    1c60:	57 c0       	rjmp	.+174    	; 0x1d10 <.L10>

00001c62 <.Loc.45>:
    1c62:	89 81       	ldd	r24, Y+1	; 0x01
    1c64:	84 36       	cpi	r24, 0x64	; 100
    1c66:	11 f0       	breq	.+4      	; 0x1c6c <.Loc.46>

00001c68 <L0^A>:
    1c68:	0c f0       	brlt	.+2      	; 0x1c6c <.Loc.46>

00001c6a <L0^A>:
    1c6a:	52 c0       	rjmp	.+164    	; 0x1d10 <.L10>

00001c6c <.Loc.46>:
	{
		OCR1B = RESET_VALUE+STOP_VALUE+(RANGE/100*percentage);
    1c6c:	89 81       	ldd	r24, Y+1	; 0x01
    1c6e:	28 2f       	mov	r18, r24
    1c70:	88 0f       	add	r24, r24
    1c72:	33 0b       	sbc	r19, r19
    1c74:	44 0b       	sbc	r20, r20
    1c76:	55 0b       	sbc	r21, r21
    1c78:	2e 87       	std	Y+14, r18	; 0x0e
    1c7a:	3f 87       	std	Y+15, r19	; 0x0f
    1c7c:	48 8b       	std	Y+16, r20	; 0x10
    1c7e:	59 8b       	std	Y+17, r21	; 0x11
    1c80:	6e 85       	ldd	r22, Y+14	; 0x0e
    1c82:	7f 85       	ldd	r23, Y+15	; 0x0f
    1c84:	88 89       	ldd	r24, Y+16	; 0x10
    1c86:	99 89       	ldd	r25, Y+17	; 0x11
    1c88:	0e 94 5f 0f 	call	0x1ebe	; 0x1ebe <__floatsisf>
    1c8c:	6a 83       	std	Y+2, r22	; 0x02
    1c8e:	7b 83       	std	Y+3, r23	; 0x03
    1c90:	8c 83       	std	Y+4, r24	; 0x04
    1c92:	9d 83       	std	Y+5, r25	; 0x05
    1c94:	20 e0       	ldi	r18, 0x00	; 0
    1c96:	30 e0       	ldi	r19, 0x00	; 0
    1c98:	40 e2       	ldi	r20, 0x20	; 32
    1c9a:	51 e4       	ldi	r21, 0x41	; 65
    1c9c:	6a 81       	ldd	r22, Y+2	; 0x02
    1c9e:	7b 81       	ldd	r23, Y+3	; 0x03
    1ca0:	8c 81       	ldd	r24, Y+4	; 0x04
    1ca2:	9d 81       	ldd	r25, Y+5	; 0x05
    1ca4:	0e 94 14 10 	call	0x2028	; 0x2028 <__mulsf3>
    1ca8:	6a 8b       	std	Y+18, r22	; 0x12
    1caa:	7b 8b       	std	Y+19, r23	; 0x13
    1cac:	8c 8b       	std	Y+20, r24	; 0x14
    1cae:	9d 8b       	std	Y+21, r25	; 0x15
    1cb0:	8a 89       	ldd	r24, Y+18	; 0x12
    1cb2:	9b 89       	ldd	r25, Y+19	; 0x13
    1cb4:	ac 89       	ldd	r26, Y+20	; 0x14
    1cb6:	bd 89       	ldd	r27, Y+21	; 0x15
    1cb8:	8e 83       	std	Y+6, r24	; 0x06
    1cba:	9f 83       	std	Y+7, r25	; 0x07
    1cbc:	a8 87       	std	Y+8, r26	; 0x08
    1cbe:	b9 87       	std	Y+9, r27	; 0x09

00001cc0 <.Loc.47>:
    1cc0:	20 e0       	ldi	r18, 0x00	; 0
    1cc2:	38 eb       	ldi	r19, 0xB8	; 184
    1cc4:	4f ed       	ldi	r20, 0xDF	; 223
    1cc6:	56 e4       	ldi	r21, 0x46	; 70
    1cc8:	6e 81       	ldd	r22, Y+6	; 0x06
    1cca:	7f 81       	ldd	r23, Y+7	; 0x07
    1ccc:	88 85       	ldd	r24, Y+8	; 0x08
    1cce:	99 85       	ldd	r25, Y+9	; 0x09
    1cd0:	0e 94 bd 0e 	call	0x1d7a	; 0x1d7a <__addsf3>
    1cd4:	6e 8b       	std	Y+22, r22	; 0x16
    1cd6:	7f 8b       	std	Y+23, r23	; 0x17
    1cd8:	88 8f       	std	Y+24, r24	; 0x18
    1cda:	99 8f       	std	Y+25, r25	; 0x19
    1cdc:	2e 89       	ldd	r18, Y+22	; 0x16
    1cde:	3f 89       	ldd	r19, Y+23	; 0x17
    1ce0:	48 8d       	ldd	r20, Y+24	; 0x18
    1ce2:	59 8d       	ldd	r21, Y+25	; 0x19
    1ce4:	2a 87       	std	Y+10, r18	; 0x0a
    1ce6:	3b 87       	std	Y+11, r19	; 0x0b
    1ce8:	4c 87       	std	Y+12, r20	; 0x0c
    1cea:	5d 87       	std	Y+13, r21	; 0x0d

00001cec <.Loc.48>:
    1cec:	0a e8       	ldi	r16, 0x8A	; 138
    1cee:	10 e0       	ldi	r17, 0x00	; 0

00001cf0 <.Loc.49>:
    1cf0:	6a 85       	ldd	r22, Y+10	; 0x0a
    1cf2:	7b 85       	ldd	r23, Y+11	; 0x0b
    1cf4:	8c 85       	ldd	r24, Y+12	; 0x0c
    1cf6:	9d 85       	ldd	r25, Y+13	; 0x0d
    1cf8:	0e 94 2e 0f 	call	0x1e5c	; 0x1e5c <__fixunssfsi>
    1cfc:	6a 8f       	std	Y+26, r22	; 0x1a
    1cfe:	7b 8f       	std	Y+27, r23	; 0x1b
    1d00:	8c 8f       	std	Y+28, r24	; 0x1c
    1d02:	9d 8f       	std	Y+29, r25	; 0x1d
    1d04:	8a 8d       	ldd	r24, Y+26	; 0x1a
    1d06:	9b 8d       	ldd	r25, Y+27	; 0x1b
    1d08:	d8 01       	movw	r26, r16
    1d0a:	11 96       	adiw	r26, 0x01	; 1
    1d0c:	9c 93       	st	X, r25
    1d0e:	8e 93       	st	-X, r24

00001d10 <.L10>:
	}
}
    1d10:	00 00       	nop
    1d12:	6d 96       	adiw	r28, 0x1d	; 29
    1d14:	0f b6       	in	r0, 0x3f	; 63
    1d16:	f8 94       	cli
    1d18:	de bf       	out	0x3e, r29	; 62
    1d1a:	0f be       	out	0x3f, r0	; 63
    1d1c:	cd bf       	out	0x3d, r28	; 61
    1d1e:	df 91       	pop	r29
    1d20:	cf 91       	pop	r28
    1d22:	1f 91       	pop	r17
    1d24:	0f 91       	pop	r16
    1d26:	08 95       	ret

00001d28 <__divmodhi4>:
    1d28:	97 fb       	bst	r25, 7

00001d2a <.Loc.1>:
    1d2a:	07 2e       	mov	r0, r23

00001d2c <.Loc.2>:
    1d2c:	16 f4       	brtc	.+4      	; 0x1d32 <.L^B1>

00001d2e <.Loc.3>:
    1d2e:	00 94       	com	r0

00001d30 <.Loc.4>:
    1d30:	07 d0       	rcall	.+14     	; 0x1d40 <__divmodhi4_neg1>

00001d32 <.L^B1>:
    1d32:	77 fd       	sbrc	r23, 7

00001d34 <.Loc.6>:
    1d34:	09 d0       	rcall	.+18     	; 0x1d48 <__divmodhi4_neg2>

00001d36 <.Loc.7>:
    1d36:	0e 94 a8 0e 	call	0x1d50	; 0x1d50 <__udivmodhi4>

00001d3a <.Loc.8>:
    1d3a:	07 fc       	sbrc	r0, 7

00001d3c <.Loc.9>:
    1d3c:	05 d0       	rcall	.+10     	; 0x1d48 <__divmodhi4_neg2>

00001d3e <.Loc.10>:
    1d3e:	3e f4       	brtc	.+14     	; 0x1d4e <__divmodhi4_exit>

00001d40 <__divmodhi4_neg1>:
    1d40:	90 95       	com	r25

00001d42 <.Loc.12>:
    1d42:	81 95       	neg	r24

00001d44 <.Loc.13>:
    1d44:	9f 4f       	sbci	r25, 0xFF	; 255

00001d46 <.Loc.14>:
    1d46:	08 95       	ret

00001d48 <__divmodhi4_neg2>:
    1d48:	70 95       	com	r23

00001d4a <.Loc.16>:
    1d4a:	61 95       	neg	r22

00001d4c <.Loc.17>:
    1d4c:	7f 4f       	sbci	r23, 0xFF	; 255

00001d4e <__divmodhi4_exit>:
    1d4e:	08 95       	ret

00001d50 <__udivmodhi4>:
    1d50:	aa 1b       	sub	r26, r26

00001d52 <.Loc.1>:
    1d52:	bb 1b       	sub	r27, r27

00001d54 <.Loc.2>:
    1d54:	51 e1       	ldi	r21, 0x11	; 17

00001d56 <.Loc.3>:
    1d56:	07 c0       	rjmp	.+14     	; 0x1d66 <__udivmodhi4_ep>

00001d58 <__udivmodhi4_loop>:
    1d58:	aa 1f       	adc	r26, r26

00001d5a <.Loc.5>:
    1d5a:	bb 1f       	adc	r27, r27

00001d5c <.Loc.6>:
    1d5c:	a6 17       	cp	r26, r22

00001d5e <.Loc.7>:
    1d5e:	b7 07       	cpc	r27, r23

00001d60 <.Loc.8>:
    1d60:	10 f0       	brcs	.+4      	; 0x1d66 <__udivmodhi4_ep>

00001d62 <.Loc.9>:
    1d62:	a6 1b       	sub	r26, r22

00001d64 <.Loc.10>:
    1d64:	b7 0b       	sbc	r27, r23

00001d66 <__udivmodhi4_ep>:
    1d66:	88 1f       	adc	r24, r24

00001d68 <.Loc.12>:
    1d68:	99 1f       	adc	r25, r25

00001d6a <.Loc.13>:
    1d6a:	5a 95       	dec	r21

00001d6c <.Loc.14>:
    1d6c:	a9 f7       	brne	.-22     	; 0x1d58 <__udivmodhi4_loop>

00001d6e <.Loc.15>:
    1d6e:	80 95       	com	r24

00001d70 <.Loc.16>:
    1d70:	90 95       	com	r25

00001d72 <.Loc.17>:
    1d72:	bc 01       	movw	r22, r24

00001d74 <.Loc.18>:
    1d74:	cd 01       	movw	r24, r26

00001d76 <.Loc.19>:
    1d76:	08 95       	ret

00001d78 <__subsf3>:
    1d78:	50 58       	subi	r21, 0x80	; 128

00001d7a <__addsf3>:
    1d7a:	bb 27       	eor	r27, r27
    1d7c:	aa 27       	eor	r26, r26
    1d7e:	0e 94 d4 0e 	call	0x1da8	; 0x1da8 <__addsf3x>
    1d82:	0c 94 d5 0f 	jmp	0x1faa	; 0x1faa <__fp_round>

00001d86 <.L^B1>:
    1d86:	0e 94 c7 0f 	call	0x1f8e	; 0x1f8e <__fp_pscA>
    1d8a:	38 f0       	brcs	.+14     	; 0x1d9a <.L_nan>
    1d8c:	0e 94 ce 0f 	call	0x1f9c	; 0x1f9c <__fp_pscB>
    1d90:	20 f0       	brcs	.+8      	; 0x1d9a <.L_nan>
    1d92:	39 f4       	brne	.+14     	; 0x1da2 <.L_inf>
    1d94:	9f 3f       	cpi	r25, 0xFF	; 255
    1d96:	19 f4       	brne	.+6      	; 0x1d9e <.L_infB>
    1d98:	26 f4       	brtc	.+8      	; 0x1da2 <.L_inf>

00001d9a <.L_nan>:
    1d9a:	0c 94 c4 0f 	jmp	0x1f88	; 0x1f88 <__fp_nan>

00001d9e <.L_infB>:
    1d9e:	0e f4       	brtc	.+2      	; 0x1da2 <.L_inf>
    1da0:	e0 95       	com	r30

00001da2 <.L_inf>:
    1da2:	e7 fb       	bst	r30, 7
    1da4:	0c 94 be 0f 	jmp	0x1f7c	; 0x1f7c <__fp_inf>

00001da8 <__addsf3x>:
    1da8:	e9 2f       	mov	r30, r25
    1daa:	0e 94 e6 0f 	call	0x1fcc	; 0x1fcc <__fp_split3>
    1dae:	58 f3       	brcs	.-42     	; 0x1d86 <.L^B1>
    1db0:	ba 17       	cp	r27, r26
    1db2:	62 07       	cpc	r22, r18
    1db4:	73 07       	cpc	r23, r19
    1db6:	84 07       	cpc	r24, r20
    1db8:	95 07       	cpc	r25, r21
    1dba:	20 f0       	brcs	.+8      	; 0x1dc4 <.L2^B1>
    1dbc:	79 f4       	brne	.+30     	; 0x1ddc <.L4^B1>
    1dbe:	a6 f5       	brtc	.+104    	; 0x1e28 <.L_add>
    1dc0:	0c 94 08 10 	jmp	0x2010	; 0x2010 <__fp_zero>

00001dc4 <.L2^B1>:
    1dc4:	0e f4       	brtc	.+2      	; 0x1dc8 <.L3^B1>
    1dc6:	e0 95       	com	r30

00001dc8 <.L3^B1>:
    1dc8:	0b 2e       	mov	r0, r27
    1dca:	ba 2f       	mov	r27, r26
    1dcc:	a0 2d       	mov	r26, r0
    1dce:	0b 01       	movw	r0, r22
    1dd0:	b9 01       	movw	r22, r18
    1dd2:	90 01       	movw	r18, r0
    1dd4:	0c 01       	movw	r0, r24
    1dd6:	ca 01       	movw	r24, r20
    1dd8:	a0 01       	movw	r20, r0
    1dda:	11 24       	eor	r1, r1

00001ddc <.L4^B1>:
    1ddc:	ff 27       	eor	r31, r31
    1dde:	59 1b       	sub	r21, r25

00001de0 <.L5^B1>:
    1de0:	99 f0       	breq	.+38     	; 0x1e08 <.L7^B1>
    1de2:	59 3f       	cpi	r21, 0xF9	; 249
    1de4:	50 f4       	brcc	.+20     	; 0x1dfa <.L6^B1>
    1de6:	50 3e       	cpi	r21, 0xE0	; 224
    1de8:	68 f1       	brcs	.+90     	; 0x1e44 <.L_ret>
    1dea:	1a 16       	cp	r1, r26
    1dec:	f0 40       	sbci	r31, 0x00	; 0
    1dee:	a2 2f       	mov	r26, r18
    1df0:	23 2f       	mov	r18, r19
    1df2:	34 2f       	mov	r19, r20
    1df4:	44 27       	eor	r20, r20
    1df6:	58 5f       	subi	r21, 0xF8	; 248
    1df8:	f3 cf       	rjmp	.-26     	; 0x1de0 <.L5^B1>

00001dfa <.L6^B1>:
    1dfa:	46 95       	lsr	r20
    1dfc:	37 95       	ror	r19
    1dfe:	27 95       	ror	r18
    1e00:	a7 95       	ror	r26
    1e02:	f0 40       	sbci	r31, 0x00	; 0
    1e04:	53 95       	inc	r21
    1e06:	c9 f7       	brne	.-14     	; 0x1dfa <.L6^B1>

00001e08 <.L7^B1>:
    1e08:	7e f4       	brtc	.+30     	; 0x1e28 <.L_add>
    1e0a:	1f 16       	cp	r1, r31
    1e0c:	ba 0b       	sbc	r27, r26
    1e0e:	62 0b       	sbc	r22, r18
    1e10:	73 0b       	sbc	r23, r19
    1e12:	84 0b       	sbc	r24, r20
    1e14:	ba f0       	brmi	.+46     	; 0x1e44 <.L_ret>

00001e16 <.L8^B1>:
    1e16:	91 50       	subi	r25, 0x01	; 1
    1e18:	a1 f0       	breq	.+40     	; 0x1e42 <.L9^B1>
    1e1a:	ff 0f       	add	r31, r31
    1e1c:	bb 1f       	adc	r27, r27
    1e1e:	66 1f       	adc	r22, r22
    1e20:	77 1f       	adc	r23, r23
    1e22:	88 1f       	adc	r24, r24
    1e24:	c2 f7       	brpl	.-16     	; 0x1e16 <.L8^B1>
    1e26:	0e c0       	rjmp	.+28     	; 0x1e44 <.L_ret>

00001e28 <.L_add>:
    1e28:	ba 0f       	add	r27, r26
    1e2a:	62 1f       	adc	r22, r18
    1e2c:	73 1f       	adc	r23, r19
    1e2e:	84 1f       	adc	r24, r20
    1e30:	48 f4       	brcc	.+18     	; 0x1e44 <.L_ret>
    1e32:	87 95       	ror	r24
    1e34:	77 95       	ror	r23
    1e36:	67 95       	ror	r22
    1e38:	b7 95       	ror	r27
    1e3a:	f7 95       	ror	r31
    1e3c:	9e 3f       	cpi	r25, 0xFE	; 254
    1e3e:	08 f0       	brcs	.+2      	; 0x1e42 <.L9^B1>
    1e40:	b0 cf       	rjmp	.-160    	; 0x1da2 <.L_inf>

00001e42 <.L9^B1>:
    1e42:	93 95       	inc	r25

00001e44 <.L_ret>:
    1e44:	88 0f       	add	r24, r24
    1e46:	08 f0       	brcs	.+2      	; 0x1e4a <.L1^B1>
    1e48:	99 27       	eor	r25, r25

00001e4a <.L1^B1>:
    1e4a:	ee 0f       	add	r30, r30
    1e4c:	97 95       	ror	r25
    1e4e:	87 95       	ror	r24
    1e50:	08 95       	ret

00001e52 <__cmpsf2>:
    1e52:	0e 94 9a 0f 	call	0x1f34	; 0x1f34 <__fp_cmp>
    1e56:	08 f4       	brcc	.+2      	; 0x1e5a <.L1^B1>
    1e58:	81 e0       	ldi	r24, 0x01	; 1

00001e5a <.L1^B1>:
    1e5a:	08 95       	ret

00001e5c <__fixunssfsi>:
    1e5c:	0e 94 ee 0f 	call	0x1fdc	; 0x1fdc <__fp_splitA>
    1e60:	88 f0       	brcs	.+34     	; 0x1e84 <.L_err>
    1e62:	9f 57       	subi	r25, 0x7F	; 127
    1e64:	98 f0       	brcs	.+38     	; 0x1e8c <.L_zr>
    1e66:	b9 2f       	mov	r27, r25
    1e68:	99 27       	eor	r25, r25
    1e6a:	b7 51       	subi	r27, 0x17	; 23
    1e6c:	b0 f0       	brcs	.+44     	; 0x1e9a <.L4^B1>
    1e6e:	e1 f0       	breq	.+56     	; 0x1ea8 <.L_sign>

00001e70 <.L1^B1>:
    1e70:	66 0f       	add	r22, r22
    1e72:	77 1f       	adc	r23, r23
    1e74:	88 1f       	adc	r24, r24
    1e76:	99 1f       	adc	r25, r25
    1e78:	1a f0       	brmi	.+6      	; 0x1e80 <.L2^B1>
    1e7a:	ba 95       	dec	r27
    1e7c:	c9 f7       	brne	.-14     	; 0x1e70 <.L1^B1>
    1e7e:	14 c0       	rjmp	.+40     	; 0x1ea8 <.L_sign>

00001e80 <.L2^B1>:
    1e80:	b1 30       	cpi	r27, 0x01	; 1
    1e82:	91 f0       	breq	.+36     	; 0x1ea8 <.L_sign>

00001e84 <.L_err>:
    1e84:	0e 94 08 10 	call	0x2010	; 0x2010 <__fp_zero>
    1e88:	b1 e0       	ldi	r27, 0x01	; 1
    1e8a:	08 95       	ret

00001e8c <.L_zr>:
    1e8c:	0c 94 08 10 	jmp	0x2010	; 0x2010 <__fp_zero>

00001e90 <.L3^B1>:
    1e90:	67 2f       	mov	r22, r23
    1e92:	78 2f       	mov	r23, r24
    1e94:	88 27       	eor	r24, r24
    1e96:	b8 5f       	subi	r27, 0xF8	; 248
    1e98:	39 f0       	breq	.+14     	; 0x1ea8 <.L_sign>

00001e9a <.L4^B1>:
    1e9a:	b9 3f       	cpi	r27, 0xF9	; 249
    1e9c:	cc f3       	brlt	.-14     	; 0x1e90 <.L3^B1>

00001e9e <.L5^B1>:
    1e9e:	86 95       	lsr	r24
    1ea0:	77 95       	ror	r23
    1ea2:	67 95       	ror	r22
    1ea4:	b3 95       	inc	r27
    1ea6:	d9 f7       	brne	.-10     	; 0x1e9e <.L5^B1>

00001ea8 <.L_sign>:
    1ea8:	3e f4       	brtc	.+14     	; 0x1eb8 <.L6^B1>
    1eaa:	90 95       	com	r25
    1eac:	80 95       	com	r24
    1eae:	70 95       	com	r23
    1eb0:	61 95       	neg	r22
    1eb2:	7f 4f       	sbci	r23, 0xFF	; 255
    1eb4:	8f 4f       	sbci	r24, 0xFF	; 255
    1eb6:	9f 4f       	sbci	r25, 0xFF	; 255

00001eb8 <.L6^B1>:
    1eb8:	08 95       	ret

00001eba <__floatunsisf>:
    1eba:	e8 94       	clt
    1ebc:	09 c0       	rjmp	.+18     	; 0x1ed0 <.L1^B1>

00001ebe <__floatsisf>:
    1ebe:	97 fb       	bst	r25, 7
    1ec0:	3e f4       	brtc	.+14     	; 0x1ed0 <.L1^B1>
    1ec2:	90 95       	com	r25
    1ec4:	80 95       	com	r24
    1ec6:	70 95       	com	r23
    1ec8:	61 95       	neg	r22
    1eca:	7f 4f       	sbci	r23, 0xFF	; 255
    1ecc:	8f 4f       	sbci	r24, 0xFF	; 255
    1ece:	9f 4f       	sbci	r25, 0xFF	; 255

00001ed0 <.L1^B1>:
    1ed0:	99 23       	and	r25, r25
    1ed2:	a9 f0       	breq	.+42     	; 0x1efe <.L4^B1>
    1ed4:	f9 2f       	mov	r31, r25
    1ed6:	96 e9       	ldi	r25, 0x96	; 150
    1ed8:	bb 27       	eor	r27, r27

00001eda <.L2^B1>:
    1eda:	93 95       	inc	r25
    1edc:	f6 95       	lsr	r31
    1ede:	87 95       	ror	r24
    1ee0:	77 95       	ror	r23
    1ee2:	67 95       	ror	r22
    1ee4:	b7 95       	ror	r27
    1ee6:	f1 11       	cpse	r31, r1
    1ee8:	f8 cf       	rjmp	.-16     	; 0x1eda <.L2^B1>
    1eea:	fa f4       	brpl	.+62     	; 0x1f2a <.L_pack>
    1eec:	bb 0f       	add	r27, r27
    1eee:	11 f4       	brne	.+4      	; 0x1ef4 <.L3^B1>
    1ef0:	60 ff       	sbrs	r22, 0
    1ef2:	1b c0       	rjmp	.+54     	; 0x1f2a <.L_pack>

00001ef4 <.L3^B1>:
    1ef4:	6f 5f       	subi	r22, 0xFF	; 255
    1ef6:	7f 4f       	sbci	r23, 0xFF	; 255
    1ef8:	8f 4f       	sbci	r24, 0xFF	; 255
    1efa:	9f 4f       	sbci	r25, 0xFF	; 255
    1efc:	16 c0       	rjmp	.+44     	; 0x1f2a <.L_pack>

00001efe <.L4^B1>:
    1efe:	88 23       	and	r24, r24
    1f00:	11 f0       	breq	.+4      	; 0x1f06 <.L5^B1>
    1f02:	96 e9       	ldi	r25, 0x96	; 150
    1f04:	11 c0       	rjmp	.+34     	; 0x1f28 <.L8^B1>

00001f06 <.L5^B1>:
    1f06:	77 23       	and	r23, r23
    1f08:	21 f0       	breq	.+8      	; 0x1f12 <.L6^B1>
    1f0a:	9e e8       	ldi	r25, 0x8E	; 142
    1f0c:	87 2f       	mov	r24, r23
    1f0e:	76 2f       	mov	r23, r22
    1f10:	05 c0       	rjmp	.+10     	; 0x1f1c <.L7^B1>

00001f12 <.L6^B1>:
    1f12:	66 23       	and	r22, r22
    1f14:	71 f0       	breq	.+28     	; 0x1f32 <.L9^B1>
    1f16:	96 e8       	ldi	r25, 0x86	; 134
    1f18:	86 2f       	mov	r24, r22
    1f1a:	70 e0       	ldi	r23, 0x00	; 0

00001f1c <.L7^B1>:
    1f1c:	60 e0       	ldi	r22, 0x00	; 0
    1f1e:	2a f0       	brmi	.+10     	; 0x1f2a <.L_pack>

00001f20 <.L10^B1>:
    1f20:	9a 95       	dec	r25
    1f22:	66 0f       	add	r22, r22
    1f24:	77 1f       	adc	r23, r23
    1f26:	88 1f       	adc	r24, r24

00001f28 <.L8^B1>:
    1f28:	da f7       	brpl	.-10     	; 0x1f20 <.L10^B1>

00001f2a <.L_pack>:
    1f2a:	88 0f       	add	r24, r24
    1f2c:	96 95       	lsr	r25
    1f2e:	87 95       	ror	r24
    1f30:	97 f9       	bld	r25, 7

00001f32 <.L9^B1>:
    1f32:	08 95       	ret

00001f34 <__fp_cmp>:
    1f34:	99 0f       	add	r25, r25
    1f36:	00 08       	sbc	r0, r0
    1f38:	55 0f       	add	r21, r21
    1f3a:	aa 0b       	sbc	r26, r26
    1f3c:	e0 e8       	ldi	r30, 0x80	; 128
    1f3e:	fe ef       	ldi	r31, 0xFE	; 254
    1f40:	16 16       	cp	r1, r22
    1f42:	17 06       	cpc	r1, r23
    1f44:	e8 07       	cpc	r30, r24
    1f46:	f9 07       	cpc	r31, r25
    1f48:	c0 f0       	brcs	.+48     	; 0x1f7a <.L9^B1>
    1f4a:	12 16       	cp	r1, r18
    1f4c:	13 06       	cpc	r1, r19
    1f4e:	e4 07       	cpc	r30, r20
    1f50:	f5 07       	cpc	r31, r21
    1f52:	98 f0       	brcs	.+38     	; 0x1f7a <.L9^B1>
    1f54:	62 1b       	sub	r22, r18
    1f56:	73 0b       	sbc	r23, r19
    1f58:	84 0b       	sbc	r24, r20
    1f5a:	95 0b       	sbc	r25, r21
    1f5c:	39 f4       	brne	.+14     	; 0x1f6c <.L1^B1>
    1f5e:	0a 26       	eor	r0, r26
    1f60:	61 f0       	breq	.+24     	; 0x1f7a <.L9^B1>
    1f62:	23 2b       	or	r18, r19
    1f64:	24 2b       	or	r18, r20
    1f66:	25 2b       	or	r18, r21
    1f68:	21 f4       	brne	.+8      	; 0x1f72 <.L2^B1>
    1f6a:	08 95       	ret

00001f6c <.L1^B1>:
    1f6c:	0a 26       	eor	r0, r26
    1f6e:	09 f4       	brne	.+2      	; 0x1f72 <.L2^B1>
    1f70:	a1 40       	sbci	r26, 0x01	; 1

00001f72 <.L2^B1>:
    1f72:	a6 95       	lsr	r26
    1f74:	8f ef       	ldi	r24, 0xFF	; 255
    1f76:	81 1d       	adc	r24, r1
    1f78:	81 1d       	adc	r24, r1

00001f7a <.L9^B1>:
    1f7a:	08 95       	ret

00001f7c <__fp_inf>:
    1f7c:	97 f9       	bld	r25, 7
    1f7e:	9f 67       	ori	r25, 0x7F	; 127
    1f80:	80 e8       	ldi	r24, 0x80	; 128
    1f82:	70 e0       	ldi	r23, 0x00	; 0
    1f84:	60 e0       	ldi	r22, 0x00	; 0
    1f86:	08 95       	ret

00001f88 <__fp_nan>:
    1f88:	9f ef       	ldi	r25, 0xFF	; 255
    1f8a:	80 ec       	ldi	r24, 0xC0	; 192
    1f8c:	08 95       	ret

00001f8e <__fp_pscA>:
    1f8e:	00 24       	eor	r0, r0
    1f90:	0a 94       	dec	r0
    1f92:	16 16       	cp	r1, r22
    1f94:	17 06       	cpc	r1, r23
    1f96:	18 06       	cpc	r1, r24
    1f98:	09 06       	cpc	r0, r25
    1f9a:	08 95       	ret

00001f9c <__fp_pscB>:
    1f9c:	00 24       	eor	r0, r0
    1f9e:	0a 94       	dec	r0
    1fa0:	12 16       	cp	r1, r18
    1fa2:	13 06       	cpc	r1, r19
    1fa4:	14 06       	cpc	r1, r20
    1fa6:	05 06       	cpc	r0, r21
    1fa8:	08 95       	ret

00001faa <__fp_round>:
    1faa:	09 2e       	mov	r0, r25
    1fac:	03 94       	inc	r0
    1fae:	00 0c       	add	r0, r0
    1fb0:	11 f4       	brne	.+4      	; 0x1fb6 <.L1^B1>
    1fb2:	88 23       	and	r24, r24
    1fb4:	52 f0       	brmi	.+20     	; 0x1fca <.L3^B1>

00001fb6 <.L1^B1>:
    1fb6:	bb 0f       	add	r27, r27
    1fb8:	40 f4       	brcc	.+16     	; 0x1fca <.L3^B1>
    1fba:	bf 2b       	or	r27, r31
    1fbc:	11 f4       	brne	.+4      	; 0x1fc2 <.L2^B1>
    1fbe:	60 ff       	sbrs	r22, 0
    1fc0:	04 c0       	rjmp	.+8      	; 0x1fca <.L3^B1>

00001fc2 <.L2^B1>:
    1fc2:	6f 5f       	subi	r22, 0xFF	; 255
    1fc4:	7f 4f       	sbci	r23, 0xFF	; 255
    1fc6:	8f 4f       	sbci	r24, 0xFF	; 255
    1fc8:	9f 4f       	sbci	r25, 0xFF	; 255

00001fca <.L3^B1>:
    1fca:	08 95       	ret

00001fcc <__fp_split3>:
    1fcc:	57 fd       	sbrc	r21, 7
    1fce:	90 58       	subi	r25, 0x80	; 128
    1fd0:	44 0f       	add	r20, r20
    1fd2:	55 1f       	adc	r21, r21
    1fd4:	59 f0       	breq	.+22     	; 0x1fec <.L4^B1>
    1fd6:	5f 3f       	cpi	r21, 0xFF	; 255
    1fd8:	71 f0       	breq	.+28     	; 0x1ff6 <.L5^B1>

00001fda <.L1^B1>:
    1fda:	47 95       	ror	r20

00001fdc <__fp_splitA>:
    1fdc:	88 0f       	add	r24, r24
    1fde:	97 fb       	bst	r25, 7
    1fe0:	99 1f       	adc	r25, r25
    1fe2:	61 f0       	breq	.+24     	; 0x1ffc <.L6^B1>
    1fe4:	9f 3f       	cpi	r25, 0xFF	; 255
    1fe6:	79 f0       	breq	.+30     	; 0x2006 <.L7^B1>

00001fe8 <.L3^B1>:
    1fe8:	87 95       	ror	r24
    1fea:	08 95       	ret

00001fec <.L4^B1>:
    1fec:	12 16       	cp	r1, r18
    1fee:	13 06       	cpc	r1, r19
    1ff0:	14 06       	cpc	r1, r20
    1ff2:	55 1f       	adc	r21, r21
    1ff4:	f2 cf       	rjmp	.-28     	; 0x1fda <.L1^B1>

00001ff6 <.L5^B1>:
    1ff6:	46 95       	lsr	r20
    1ff8:	f1 df       	rcall	.-30     	; 0x1fdc <__fp_splitA>
    1ffa:	08 c0       	rjmp	.+16     	; 0x200c <.L8^B1>

00001ffc <.L6^B1>:
    1ffc:	16 16       	cp	r1, r22
    1ffe:	17 06       	cpc	r1, r23
    2000:	18 06       	cpc	r1, r24
    2002:	99 1f       	adc	r25, r25
    2004:	f1 cf       	rjmp	.-30     	; 0x1fe8 <.L3^B1>

00002006 <.L7^B1>:
    2006:	86 95       	lsr	r24
    2008:	71 05       	cpc	r23, r1
    200a:	61 05       	cpc	r22, r1

0000200c <.L8^B1>:
    200c:	08 94       	sec
    200e:	08 95       	ret

00002010 <__fp_zero>:
    2010:	e8 94       	clt

00002012 <__fp_szero>:
    2012:	bb 27       	eor	r27, r27
    2014:	66 27       	eor	r22, r22
    2016:	77 27       	eor	r23, r23
    2018:	cb 01       	movw	r24, r22
    201a:	97 f9       	bld	r25, 7
    201c:	08 95       	ret

0000201e <__gesf2>:
    201e:	0e 94 9a 0f 	call	0x1f34	; 0x1f34 <__fp_cmp>
    2022:	08 f4       	brcc	.+2      	; 0x2026 <.L1^B1>
    2024:	8f ef       	ldi	r24, 0xFF	; 255

00002026 <.L1^B1>:
    2026:	08 95       	ret

00002028 <__mulsf3>:
    2028:	0e 94 27 10 	call	0x204e	; 0x204e <__mulsf3x>
    202c:	0c 94 d5 0f 	jmp	0x1faa	; 0x1faa <__fp_round>

00002030 <.L^B1>:
    2030:	0e 94 c7 0f 	call	0x1f8e	; 0x1f8e <__fp_pscA>
    2034:	38 f0       	brcs	.+14     	; 0x2044 <.L1^B1>
    2036:	0e 94 ce 0f 	call	0x1f9c	; 0x1f9c <__fp_pscB>
    203a:	20 f0       	brcs	.+8      	; 0x2044 <.L1^B1>
    203c:	95 23       	and	r25, r21
    203e:	11 f0       	breq	.+4      	; 0x2044 <.L1^B1>
    2040:	0c 94 be 0f 	jmp	0x1f7c	; 0x1f7c <__fp_inf>

00002044 <.L1^B1>:
    2044:	0c 94 c4 0f 	jmp	0x1f88	; 0x1f88 <__fp_nan>

00002048 <.L2^B1>:
    2048:	11 24       	eor	r1, r1
    204a:	0c 94 09 10 	jmp	0x2012	; 0x2012 <__fp_szero>

0000204e <__mulsf3x>:
    204e:	0e 94 e6 0f 	call	0x1fcc	; 0x1fcc <__fp_split3>
    2052:	70 f3       	brcs	.-36     	; 0x2030 <.L^B1>

00002054 <__mulsf3_pse>:
    2054:	95 9f       	mul	r25, r21
    2056:	c1 f3       	breq	.-16     	; 0x2048 <.L2^B1>
    2058:	95 0f       	add	r25, r21
    205a:	50 e0       	ldi	r21, 0x00	; 0
    205c:	55 1f       	adc	r21, r21
    205e:	62 9f       	mul	r22, r18
    2060:	f0 01       	movw	r30, r0
    2062:	72 9f       	mul	r23, r18
    2064:	bb 27       	eor	r27, r27
    2066:	f0 0d       	add	r31, r0
    2068:	b1 1d       	adc	r27, r1
    206a:	63 9f       	mul	r22, r19
    206c:	aa 27       	eor	r26, r26
    206e:	f0 0d       	add	r31, r0
    2070:	b1 1d       	adc	r27, r1
    2072:	aa 1f       	adc	r26, r26
    2074:	64 9f       	mul	r22, r20
    2076:	66 27       	eor	r22, r22
    2078:	b0 0d       	add	r27, r0
    207a:	a1 1d       	adc	r26, r1
    207c:	66 1f       	adc	r22, r22
    207e:	82 9f       	mul	r24, r18
    2080:	22 27       	eor	r18, r18
    2082:	b0 0d       	add	r27, r0
    2084:	a1 1d       	adc	r26, r1
    2086:	62 1f       	adc	r22, r18
    2088:	73 9f       	mul	r23, r19
    208a:	b0 0d       	add	r27, r0
    208c:	a1 1d       	adc	r26, r1
    208e:	62 1f       	adc	r22, r18
    2090:	83 9f       	mul	r24, r19
    2092:	a0 0d       	add	r26, r0
    2094:	61 1d       	adc	r22, r1
    2096:	22 1f       	adc	r18, r18
    2098:	74 9f       	mul	r23, r20
    209a:	33 27       	eor	r19, r19
    209c:	a0 0d       	add	r26, r0
    209e:	61 1d       	adc	r22, r1
    20a0:	23 1f       	adc	r18, r19
    20a2:	84 9f       	mul	r24, r20
    20a4:	60 0d       	add	r22, r0
    20a6:	21 1d       	adc	r18, r1
    20a8:	82 2f       	mov	r24, r18
    20aa:	76 2f       	mov	r23, r22
    20ac:	6a 2f       	mov	r22, r26
    20ae:	11 24       	eor	r1, r1
    20b0:	9f 57       	subi	r25, 0x7F	; 127
    20b2:	50 40       	sbci	r21, 0x00	; 0
    20b4:	9a f0       	brmi	.+38     	; 0x20dc <.L13^B1>
    20b6:	f1 f0       	breq	.+60     	; 0x20f4 <.L15^B1>

000020b8 <.L10^B1>:
    20b8:	88 23       	and	r24, r24
    20ba:	4a f0       	brmi	.+18     	; 0x20ce <.L11^B1>
    20bc:	ee 0f       	add	r30, r30
    20be:	ff 1f       	adc	r31, r31
    20c0:	bb 1f       	adc	r27, r27
    20c2:	66 1f       	adc	r22, r22
    20c4:	77 1f       	adc	r23, r23
    20c6:	88 1f       	adc	r24, r24
    20c8:	91 50       	subi	r25, 0x01	; 1
    20ca:	50 40       	sbci	r21, 0x00	; 0
    20cc:	a9 f7       	brne	.-22     	; 0x20b8 <.L10^B1>

000020ce <.L11^B1>:
    20ce:	9e 3f       	cpi	r25, 0xFE	; 254
    20d0:	51 05       	cpc	r21, r1
    20d2:	80 f0       	brcs	.+32     	; 0x20f4 <.L15^B1>
    20d4:	0c 94 be 0f 	jmp	0x1f7c	; 0x1f7c <__fp_inf>

000020d8 <.L12^B1>:
    20d8:	0c 94 09 10 	jmp	0x2012	; 0x2012 <__fp_szero>

000020dc <.L13^B1>:
    20dc:	5f 3f       	cpi	r21, 0xFF	; 255
    20de:	e4 f3       	brlt	.-8      	; 0x20d8 <.L12^B1>
    20e0:	98 3e       	cpi	r25, 0xE8	; 232
    20e2:	d4 f3       	brlt	.-12     	; 0x20d8 <.L12^B1>

000020e4 <.L14^B1>:
    20e4:	86 95       	lsr	r24
    20e6:	77 95       	ror	r23
    20e8:	67 95       	ror	r22
    20ea:	b7 95       	ror	r27
    20ec:	f7 95       	ror	r31
    20ee:	e7 95       	ror	r30
    20f0:	9f 5f       	subi	r25, 0xFF	; 255
    20f2:	c1 f7       	brne	.-16     	; 0x20e4 <.L14^B1>

000020f4 <.L15^B1>:
    20f4:	fe 2b       	or	r31, r30
    20f6:	88 0f       	add	r24, r24
    20f8:	91 1d       	adc	r25, r1
    20fa:	96 95       	lsr	r25
    20fc:	87 95       	ror	r24
    20fe:	97 f9       	bld	r25, 7
    2100:	08 95       	ret

00002102 <_exit>:
    2102:	f8 94       	cli

00002104 <__stop_program>:
    2104:	ff cf       	rjmp	.-2      	; 0x2104 <__stop_program>
